
========================================================================

** ELF Header Information

    File Name: .\obj\bank2.axf

    Machine class: ELFCLASS32 (32-bit)
    Data encoding: ELFDATA2LSB (Little endian)
    Header version: EV_CURRENT (Current version)
    Operating System ABI: none
    ABI Version: 0
    File Type: ET_EXEC (Executable) (2)
    Machine: EM_ARM (ARM)

    Image Entry point: 0x00040225
    Flags: EF_ARM_HASENTRY (0x05000002)

    ARM ELF revision: 5 (ABI version 2)

    Conforms to Base float procedure-call standard

    Built with
    Component: ARM Compiler 5.06 update 6 (build 750) Tool: armasm [4d35ec]
    Component: ARM Compiler 5.06 update 6 (build 750) Tool: armlink [4d35ed]

    Header size: 52 bytes (0x34)
    Program header entry size: 32 bytes (0x20)
    Section header entry size: 40 bytes (0x28)

    Program header entries: 1
    Section header entries: 16

    Program header offset: 261248 (0x0003fc80)
    Section header offset: 261280 (0x0003fca0)

    Section header string table index: 15

========================================================================

** Program header #0 (PT_LOAD) [PF_X + PF_W + PF_R + PF_ARM_ENTRY]
    Size : 8896 bytes (6844 bytes in file)
    Virtual address: 0x00040000 (Alignment 8)


========================================================================

** Section #1 'app_bank2.bin' (SHT_PROGBITS) [SHF_ALLOC + SHF_EXECINSTR]
    Size   : 6768 bytes (alignment 4)
    Address: 0x00040000

    $d.realdata
    RESET
    __Vectors
        0x00040000:    20000850    P..     DCD    536873040
        0x00040004:    00040225    %...    DCD    262693
        0x00040008:    00040265    e...    DCD    262757
        0x0004000c:    00040209    ....    DCD    262665
        0x00040010:    00040269    i...    DCD    262761
        0x00040014:    0004026b    k...    DCD    262763
        0x00040018:    0004026d    m...    DCD    262765
        0x0004001c:    00000000    ....    DCD    0
        0x00040020:    00000000    ....    DCD    0
        0x00040024:    00000000    ....    DCD    0
        0x00040028:    00000000    ....    DCD    0
        0x0004002c:    0004026f    o...    DCD    262767
        0x00040030:    00040271    q...    DCD    262769
        0x00040034:    00000000    ....    DCD    0
        0x00040038:    00040273    s...    DCD    262771
        0x0004003c:    00040b09    ....    DCD    264969
        0x00040040:    00040277    w...    DCD    262775
        0x00040044:    00040277    w...    DCD    262775
        0x00040048:    00040277    w...    DCD    262775
        0x0004004c:    00040277    w...    DCD    262775
        0x00040050:    00040277    w...    DCD    262775
        0x00040054:    00040277    w...    DCD    262775
        0x00040058:    00040277    w...    DCD    262775
        0x0004005c:    00040277    w...    DCD    262775
        0x00040060:    00040277    w...    DCD    262775
        0x00040064:    00040277    w...    DCD    262775
        0x00040068:    00040277    w...    DCD    262775
        0x0004006c:    00040277    w...    DCD    262775
        0x00040070:    00040277    w...    DCD    262775
        0x00040074:    00040277    w...    DCD    262775
        0x00040078:    00040277    w...    DCD    262775
        0x0004007c:    00040277    w...    DCD    262775
        0x00040080:    00040277    w...    DCD    262775
        0x00040084:    00040277    w...    DCD    262775
        0x00040088:    00040277    w...    DCD    262775
        0x0004008c:    00040277    w...    DCD    262775
        0x00040090:    00040277    w...    DCD    262775
        0x00040094:    00040277    w...    DCD    262775
        0x00040098:    00040277    w...    DCD    262775
        0x0004009c:    00040277    w...    DCD    262775
        0x000400a0:    00040277    w...    DCD    262775
        0x000400a4:    00040277    w...    DCD    262775
        0x000400a8:    00040277    w...    DCD    262775
        0x000400ac:    00040277    w...    DCD    262775
        0x000400b0:    00040277    w...    DCD    262775
        0x000400b4:    00040277    w...    DCD    262775
        0x000400b8:    00040277    w...    DCD    262775
        0x000400bc:    00040277    w...    DCD    262775
        0x000400c0:    00040277    w...    DCD    262775
        0x000400c4:    00040d21    !...    DCD    265505
        0x000400c8:    00040277    w...    DCD    262775
        0x000400cc:    00040277    w...    DCD    262775
        0x000400d0:    00040d61    a...    DCD    265569
        0x000400d4:    00040277    w...    DCD    262775
        0x000400d8:    00040277    w...    DCD    262775
        0x000400dc:    00040277    w...    DCD    262775
        0x000400e0:    00040277    w...    DCD    262775
        0x000400e4:    00040277    w...    DCD    262775
        0x000400e8:    00040277    w...    DCD    262775
        0x000400ec:    00040277    w...    DCD    262775
        0x000400f0:    00040277    w...    DCD    262775
        0x000400f4:    00040277    w...    DCD    262775
        0x000400f8:    00040277    w...    DCD    262775
        0x000400fc:    00040277    w...    DCD    262775
        0x00040100:    00040277    w...    DCD    262775
        0x00040104:    00040277    w...    DCD    262775
        0x00040108:    00040277    w...    DCD    262775
        0x0004010c:    00040277    w...    DCD    262775
        0x00040110:    00040277    w...    DCD    262775
        0x00040114:    00040277    w...    DCD    262775
        0x00040118:    00040277    w...    DCD    262775
        0x0004011c:    00040277    w...    DCD    262775
        0x00040120:    00040277    w...    DCD    262775
        0x00040124:    00040277    w...    DCD    262775
        0x00040128:    00040277    w...    DCD    262775
        0x0004012c:    00040277    w...    DCD    262775
        0x00040130:    00040277    w...    DCD    262775
        0x00040134:    00040277    w...    DCD    262775
        0x00040138:    00040277    w...    DCD    262775
        0x0004013c:    00040277    w...    DCD    262775
        0x00040140:    00040277    w...    DCD    262775
        0x00040144:    00040277    w...    DCD    262775
        0x00040148:    00040277    w...    DCD    262775
        0x0004014c:    00040277    w...    DCD    262775
        0x00040150:    00040277    w...    DCD    262775
        0x00040154:    00040277    w...    DCD    262775
        0x00040158:    00040277    w...    DCD    262775
        0x0004015c:    00040277    w...    DCD    262775
        0x00040160:    00040277    w...    DCD    262775
        0x00040164:    00040277    w...    DCD    262775
        0x00040168:    00040277    w...    DCD    262775
        0x0004016c:    00040277    w...    DCD    262775
        0x00040170:    00040277    w...    DCD    262775
        0x00040174:    00040277    w...    DCD    262775
        0x00040178:    00040277    w...    DCD    262775
        0x0004017c:    00040277    w...    DCD    262775
        0x00040180:    00040277    w...    DCD    262775
        0x00040184:    00040277    w...    DCD    262775
        0x00040188:    00040277    w...    DCD    262775
        0x0004018c:    00040277    w...    DCD    262775
        0x00040190:    00040277    w...    DCD    262775
        0x00040194:    00040277    w...    DCD    262775
        0x00040198:    00040277    w...    DCD    262775
        0x0004019c:    00040277    w...    DCD    262775
        0x000401a0:    00040277    w...    DCD    262775
        0x000401a4:    00040277    w...    DCD    262775
        0x000401a8:    00040277    w...    DCD    262775
        0x000401ac:    00040277    w...    DCD    262775
        0x000401b0:    00040277    w...    DCD    262775
        0x000401b4:    00040277    w...    DCD    262775
        0x000401b8:    00040277    w...    DCD    262775
        0x000401bc:    00040277    w...    DCD    262775
        0x000401c0:    00040277    w...    DCD    262775
        0x000401c4:    00040277    w...    DCD    262775
        0x000401c8:    00040277    w...    DCD    262775
        0x000401cc:    00040277    w...    DCD    262775
        0x000401d0:    00040277    w...    DCD    262775
        0x000401d4:    00040277    w...    DCD    262775
        0x000401d8:    00040277    w...    DCD    262775
        0x000401dc:    00040277    w...    DCD    262775
        0x000401e0:    00040277    w...    DCD    262775
        0x000401e4:    00040277    w...    DCD    262775
        0x000401e8:    00040277    w...    DCD    262775
        0x000401ec:    00040277    w...    DCD    262775
        0x000401f0:    00040277    w...    DCD    262775
    $t
    .ARM.Collect$$$$00000000
    .ARM.Collect$$$$00000001
    __Vectors_End
    __main
    _main_stk
        0x000401f4:    f8dfd00c    ....    LDR      sp,__lit__00000000 ; [0x40204] = 0x20000850
    .ARM.Collect$$$$00000004
    _main_scatterload
        0x000401f8:    f000f88c    ....    BL       __scatterload ; 0x40314
    .ARM.Collect$$$$00000008
    .ARM.Collect$$$$0000000A
    .ARM.Collect$$$$0000000B
    __main_after_scatterload
    _main_clock
    _main_cpp_init
    _main_init
        0x000401fc:    4800        .H      LDR      r0,[pc,#0] ; [0x40200] = 0x418f5
        0x000401fe:    4700        .G      BX       r0
    $d
        0x00040200:    000418f5    ....    DCD    268533
    .ARM.Collect$$$$00002712
    __lit__00000000
    .ARM.Collect$$$$0000000D
    .ARM.Collect$$$$0000000F
    __rt_final_cpp
    __rt_final_exit
        0x00040204:    20000850    P..     DCD    536873040
    $t
    .emb_text
    $v0
    HardFault_Handler
        0x00040208:    2004        .       MOVS     r0,#4
        0x0004020a:    4671        qF      MOV      r1,lr
        0x0004020c:    4208        .B      TST      r0,r1
        0x0004020e:    d002        ..      BEQ      0x40216 ; HardFault_Handler + 14
        0x00040210:    f3ef8009    ....    MRS      r0,PSP
        0x00040214:    e001        ..      B        0x4021a ; HardFault_Handler + 18
        0x00040216:    f3ef8008    ....    MRS      r0,MSP
        0x0004021a:    4671        qF      MOV      r1,lr
        0x0004021c:    4a00        .J      LDR      r2,[pc,#0] ; [0x40220] = 0x409d1
        0x0004021e:    4710        .G      BX       r2
    $d
        0x00040220:    000409d1    ....    DCD    264657
    $t
    .text
    $v0
    Reset_Handler
        0x00040224:    4814        .H      LDR      r0,[pc,#80] ; [0x40278] = 0x40000100
        0x00040226:    f04f0159    O.Y.    MOV      r1,#0x59
        0x0004022a:    6001        .`      STR      r1,[r0,#0]
        0x0004022c:    f04f0116    O...    MOV      r1,#0x16
        0x00040230:    6001        .`      STR      r1,[r0,#0]
        0x00040232:    f04f0188    O...    MOV      r1,#0x88
        0x00040236:    6001        .`      STR      r1,[r0,#0]
        0x00040238:    4810        .H      LDR      r0,[pc,#64] ; [0x4027c] = 0x40000200
        0x0004023a:    6841        Ah      LDR      r1,[r0,#4]
        0x0004023c:    f4414180    A..A    ORR      r1,r1,#0x4000
        0x00040240:    6041        A`      STR      r1,[r0,#4]
        0x00040242:    480f        .H      LDR      r0,[pc,#60] ; [0x40280] = 0x40007000
        0x00040244:    6841        Ah      LDR      r1,[r0,#4]
        0x00040246:    f0410102    A...    ORR      r1,r1,#2
        0x0004024a:    6041        A`      STR      r1,[r0,#4]
        0x0004024c:    6841        Ah      LDR      r1,[r0,#4]
        0x0004024e:    f0410104    A...    ORR      r1,r1,#4
        0x00040252:    6041        A`      STR      r1,[r0,#4]
        0x00040254:    480b        .H      LDR      r0,[pc,#44] ; [0x40284] = 0x40bc9
        0x00040256:    4780        .G      BLX      r0
        0x00040258:    4807        .H      LDR      r0,[pc,#28] ; [0x40278] = 0x40000100
        0x0004025a:    f04f0100    O...    MOV      r1,#0
        0x0004025e:    6001        .`      STR      r1,[r0,#0]
        0x00040260:    4809        .H      LDR      r0,[pc,#36] ; [0x40288] = 0x401f5
        0x00040262:    4700        .G      BX       r0
    NMI_Handler
        0x00040264:    e7fe        ..      B        NMI_Handler ; 0x40264
        0x00040266:    e7fe        ..      B        0x40266 ; NMI_Handler + 2
    MemManage_Handler
        0x00040268:    e7fe        ..      B        MemManage_Handler ; 0x40268
    BusFault_Handler
        0x0004026a:    e7fe        ..      B        BusFault_Handler ; 0x4026a
    UsageFault_Handler
        0x0004026c:    e7fe        ..      B        UsageFault_Handler ; 0x4026c
    SVC_Handler
        0x0004026e:    e7fe        ..      B        SVC_Handler ; 0x4026e
    DebugMon_Handler
        0x00040270:    e7fe        ..      B        DebugMon_Handler ; 0x40270
    PendSV_Handler
        0x00040272:    e7fe        ..      B        PendSV_Handler ; 0x40272
        0x00040274:    e7fe        ..      B        0x40274 ; PendSV_Handler + 2
    Default_Handler
    ACMP01_IRQHandler
    BOD_IRQHandler
    BPWM0_IRQHandler
    BPWM1_IRQHandler
    BRAKE0_IRQHandler
    BRAKE1_IRQHandler
    CAN0_IRQHandler
    CAN1_IRQHandler
    CAN2_IRQHandler
    CCAP_IRQHandler
    CKFAIL_IRQHandler
    CRYPTO_IRQHandler
    DAC_IRQHandler
    EADC00_IRQHandler
    EADC01_IRQHandler
    EADC02_IRQHandler
    EADC03_IRQHandler
    EADC10_IRQHandler
    EADC11_IRQHandler
    EADC12_IRQHandler
    EADC13_IRQHandler
    ECAP0_IRQHandler
    ECAP1_IRQHandler
    EHCI_IRQHandler
    EINT0_IRQHandler
    EINT1_IRQHandler
    EINT2_IRQHandler
    EINT3_IRQHandler
    EINT4_IRQHandler
    EINT5_IRQHandler
    EINT6_IRQHandler
    EINT7_IRQHandler
    EMAC_RX_IRQHandler
    EMAC_TX_IRQHandler
    EPWM0P0_IRQHandler
    EPWM0P1_IRQHandler
    EPWM0P2_IRQHandler
    EPWM1P0_IRQHandler
    EPWM1P1_IRQHandler
    EPWM1P2_IRQHandler
    GPA_IRQHandler
    GPB_IRQHandler
    GPC_IRQHandler
    GPD_IRQHandler
    GPE_IRQHandler
    GPF_IRQHandler
    GPG_IRQHandler
    GPH_IRQHandler
    I2C0_IRQHandler
    I2C1_IRQHandler
    I2C2_IRQHandler
    I2S0_IRQHandler
    IRC_IRQHandler
    OHCI_IRQHandler
    OPA0_IRQHandler
    PDMA_IRQHandler
    PWRWU_IRQHandler
    QEI0_IRQHandler
    QEI1_IRQHandler
    QSPI0_IRQHandler
    QSPI1_IRQHandler
    RAMPE_IRQHandler
    RTC_IRQHandler
    SC0_IRQHandler
    SC1_IRQHandler
    SC2_IRQHandler
    SDH0_IRQHandler
    SDH1_IRQHandler
    SPI0_IRQHandler
    SPI1_IRQHandler
    SPI2_IRQHandler
    SPI3_IRQHandler
    SPIM_IRQHandler
    TAMPER_IRQHandler
    TMR0_IRQHandler
    TMR2_IRQHandler
    TMR3_IRQHandler
    TRNG_IRQHandler
    UART1_IRQHandler
    UART2_IRQHandler
    UART3_IRQHandler
    UART4_IRQHandler
    UART5_IRQHandler
    UART6_IRQHandler
    UART7_IRQHandler
    USBD20_IRQHandler
    USBD_IRQHandler
    USBOTG20_IRQHandler
    USBOTG_IRQHandler
    USCI0_IRQHandler
    USCI1_IRQHandler
    WDT_IRQHandler
    WWDT_IRQHandler
        0x00040276:    e7fe        ..      B        Default_Handler ; 0x40276
    $d
        0x00040278:    40000100    ...@    DCD    1073742080
        0x0004027c:    40000200    ...@    DCD    1073742336
        0x00040280:    40007000    .p.@    DCD    1073770496
        0x00040284:    00040bc9    ....    DCD    265161
        0x00040288:    000401f5    ....    DCD    262645
    $t
    .text
    __aeabi_memcpy
    __aeabi_memcpy4
    __aeabi_memcpy8
        0x0004028c:    ea400301    @...    ORR      r3,r0,r1
        0x00040290:    079b        ..      LSLS     r3,r3,#30
        0x00040292:    d003        ..      BEQ      0x4029c ; __aeabi_memcpy + 16
        0x00040294:    e009        ..      B        0x402aa ; __aeabi_memcpy + 30
        0x00040296:    c908        ..      LDM      r1!,{r3}
        0x00040298:    1f12        ..      SUBS     r2,r2,#4
        0x0004029a:    c008        ..      STM      r0!,{r3}
        0x0004029c:    2a04        .*      CMP      r2,#4
        0x0004029e:    d2fa        ..      BCS      0x40296 ; __aeabi_memcpy + 10
        0x000402a0:    e003        ..      B        0x402aa ; __aeabi_memcpy + 30
        0x000402a2:    f8113b01    ...;    LDRB     r3,[r1],#1
        0x000402a6:    f8003b01    ...;    STRB     r3,[r0],#1
        0x000402aa:    1e52        R.      SUBS     r2,r2,#1
        0x000402ac:    d2f9        ..      BCS      0x402a2 ; __aeabi_memcpy + 22
        0x000402ae:    4770        pG      BX       lr
    .text
    __aeabi_uldivmod
        0x000402b0:    e92d5ff0    -.._    PUSH     {r4-r12,lr}
        0x000402b4:    4605        .F      MOV      r5,r0
        0x000402b6:    2000        .       MOVS     r0,#0
        0x000402b8:    4692        .F      MOV      r10,r2
        0x000402ba:    469b        .F      MOV      r11,r3
        0x000402bc:    4688        .F      MOV      r8,r1
        0x000402be:    4606        .F      MOV      r6,r0
        0x000402c0:    4681        .F      MOV      r9,r0
        0x000402c2:    2440        @$      MOVS     r4,#0x40
        0x000402c4:    e01b        ..      B        0x402fe ; __aeabi_uldivmod + 78
        0x000402c6:    4628        (F      MOV      r0,r5
        0x000402c8:    4641        AF      MOV      r1,r8
        0x000402ca:    4647        GF      MOV      r7,r8
        0x000402cc:    4622        "F      MOV      r2,r4
        0x000402ce:    f000f842    ..B.    BL       __aeabi_llsr ; 0x40356
        0x000402d2:    4653        SF      MOV      r3,r10
        0x000402d4:    465a        ZF      MOV      r2,r11
        0x000402d6:    1ac0        ..      SUBS     r0,r0,r3
        0x000402d8:    4191        .A      SBCS     r1,r1,r2
        0x000402da:    d310        ..      BCC      0x402fe ; __aeabi_uldivmod + 78
        0x000402dc:    4611        .F      MOV      r1,r2
        0x000402de:    4618        .F      MOV      r0,r3
        0x000402e0:    4622        "F      MOV      r2,r4
        0x000402e2:    f000f829    ..).    BL       __aeabi_llsl ; 0x40338
        0x000402e6:    1a2d        -.      SUBS     r5,r5,r0
        0x000402e8:    eb670801    g...    SBC      r8,r7,r1
        0x000402ec:    464f        OF      MOV      r7,r9
        0x000402ee:    4622        "F      MOV      r2,r4
        0x000402f0:    2001        .       MOVS     r0,#1
        0x000402f2:    2100        .!      MOVS     r1,#0
        0x000402f4:    f000f820    .. .    BL       __aeabi_llsl ; 0x40338
        0x000402f8:    eb170900    ....    ADDS     r9,r7,r0
        0x000402fc:    414e        NA      ADCS     r6,r6,r1
        0x000402fe:    1e20         .      SUBS     r0,r4,#0
        0x00040300:    f1a40401    ....    SUB      r4,r4,#1
        0x00040304:    dcdf        ..      BGT      0x402c6 ; __aeabi_uldivmod + 22
        0x00040306:    4648        HF      MOV      r0,r9
        0x00040308:    4631        1F      MOV      r1,r6
        0x0004030a:    462a        *F      MOV      r2,r5
        0x0004030c:    4643        CF      MOV      r3,r8
        0x0004030e:    e8bd9ff0    ....    POP      {r4-r12,pc}
        0x00040312:    0000        ..      MOVS     r0,r0
    .text
    __scatterload
    __scatterload_rt2
        0x00040314:    4c06        .L      LDR      r4,[pc,#24] ; [0x40330] = 0x41a50
        0x00040316:    4d07        .M      LDR      r5,[pc,#28] ; [0x40334] = 0x41a70
        0x00040318:    e006        ..      B        0x40328 ; __scatterload + 20
        0x0004031a:    68e0        .h      LDR      r0,[r4,#0xc]
        0x0004031c:    f0400301    @...    ORR      r3,r0,#1
        0x00040320:    e8940007    ....    LDM      r4,{r0-r2}
        0x00040324:    4798        .G      BLX      r3
        0x00040326:    3410        .4      ADDS     r4,r4,#0x10
        0x00040328:    42ac        .B      CMP      r4,r5
        0x0004032a:    d3f6        ..      BCC      0x4031a ; __scatterload + 6
        0x0004032c:    f7ffff66    ..f.    BL       __main_after_scatterload ; 0x401fc
    $d
        0x00040330:    00041a50    P...    DCD    268880
        0x00040334:    00041a70    p...    DCD    268912
    $t
    .text
    __aeabi_llsl
    _ll_shift_l
        0x00040338:    2a20         *      CMP      r2,#0x20
        0x0004033a:    db04        ..      BLT      0x40346 ; __aeabi_llsl + 14
        0x0004033c:    3a20         :      SUBS     r2,r2,#0x20
        0x0004033e:    fa00f102    ....    LSL      r1,r0,r2
        0x00040342:    2000        .       MOVS     r0,#0
        0x00040344:    4770        pG      BX       lr
        0x00040346:    4091        .@      LSLS     r1,r1,r2
        0x00040348:    f1c20320    .. .    RSB      r3,r2,#0x20
        0x0004034c:    fa20f303     ...    LSR      r3,r0,r3
        0x00040350:    4319        .C      ORRS     r1,r1,r3
        0x00040352:    4090        .@      LSLS     r0,r0,r2
        0x00040354:    4770        pG      BX       lr
    .text
    __aeabi_llsr
    _ll_ushift_r
        0x00040356:    2a20         *      CMP      r2,#0x20
        0x00040358:    db04        ..      BLT      0x40364 ; __aeabi_llsr + 14
        0x0004035a:    3a20         :      SUBS     r2,r2,#0x20
        0x0004035c:    fa21f002    !...    LSR      r0,r1,r2
        0x00040360:    2100        .!      MOVS     r1,#0
        0x00040362:    4770        pG      BX       lr
        0x00040364:    fa21f302    !...    LSR      r3,r1,r2
        0x00040368:    40d0        .@      LSRS     r0,r0,r2
        0x0004036a:    f1c20220    .. .    RSB      r2,r2,#0x20
        0x0004036e:    4091        .@      LSLS     r1,r1,r2
        0x00040370:    4308        .C      ORRS     r0,r0,r1
        0x00040372:    4619        .F      MOV      r1,r3
        0x00040374:    4770        pG      BX       lr
        0x00040376:    0000        ..      MOVS     r0,r0
    i.BOOT_PROCESS
    BOOT_PROCESS
        0x00040378:    490c        .I      LDR      r1,[pc,#48] ; [0x403ac] = 0x20000038
        0x0004037a:    b510        ..      PUSH     {r4,lr}
        0x0004037c:    688a        .h      LDR      r2,[r1,#8]
        0x0004037e:    f44f2480    O..$    MOV      r4,#0x40000
        0x00040382:    b162        b.      CBZ      r2,0x4039e ; BOOT_PROCESS + 38
        0x00040384:    6888        .h      LDR      r0,[r1,#8]
        0x00040386:    42a0        .B      CMP      r0,r4
        0x00040388:    d10e        ..      BNE      0x403a8 ; BOOT_PROCESS + 48
        0x0004038a:    a009        ..      ADR      r0,{pc}+0x26 ; 0x403b0
        0x0004038c:    f000fe90    ....    BL       __0printf$8 ; 0x410b0
        0x00040390:    2000        .       MOVS     r0,#0
        0x00040392:    f000faa3    ....    BL       FMC_SetVectorPageAddr ; 0x408dc
        0x00040396:    e8bd4010    ...@    POP      {r4,lr}
        0x0004039a:    f000bb7b    ..{.    B.W      SYS_ResetCPU ; 0x40a94
        0x0004039e:    a011        ..      ADR      r0,{pc}+0x46 ; 0x403e4
        0x000403a0:    f000fe86    ....    BL       __0printf$8 ; 0x410b0
        0x000403a4:    4620         F      MOV      r0,r4
        0x000403a6:    e7f4        ..      B        0x40392 ; BOOT_PROCESS + 26
        0x000403a8:    bd10        ..      POP      {r4,pc}
    $d
        0x000403aa:    0000        ..      DCW    0
        0x000403ac:    20000038    8..     DCD    536870968
        0x000403b0:    65646e75    unde    DCD    1701080693
        0x000403b4:    41422072    r BA    DCD    1094852722
        0x000403b8:    20324b4e    NK2     DCD    540166990
        0x000403bc:    7830203a    : 0x    DCD    2016419898
        0x000403c0:    30303034    4000    DCD    808464436
        0x000403c4:    202c2030    0 ,     DCD    539762736
        0x000403c8:    6f626572    rebo    DCD    1868719474
        0x000403cc:    7420746f    ot t    DCD    1948284015
        0x000403d0:    4556206f    o VE    DCD    1163272303
        0x000403d4:    3a205443    CT :    DCD    975197251
        0x000403d8:    30783020     0x0    DCD    813183008
        0x000403dc:    30303030    0000    DCD    808464432
        0x000403e0:    00000a0d    ....    DCD    2573
        0x000403e4:    65646e75    unde    DCD    1701080693
        0x000403e8:    41422072    r BA    DCD    1094852722
        0x000403ec:    20314b4e    NK1     DCD    540101454
        0x000403f0:    7830203a    : 0x    DCD    2016419898
        0x000403f4:    30303030    0000    DCD    808464432
        0x000403f8:    202c2030    0 ,     DCD    539762736
        0x000403fc:    6f626572    rebo    DCD    1868719474
        0x00040400:    7420746f    ot t    DCD    1948284015
        0x00040404:    4556206f    o VE    DCD    1163272303
        0x00040408:    3a205443    CT :    DCD    975197251
        0x0004040c:    34783020     0x4    DCD    880291872
        0x00040410:    30303030    0000    DCD    808464432
        0x00040414:    00000a0d    ....    DCD    2573
    $t
    i.CLK_DisablePLL
    CLK_DisablePLL
        0x00040418:    f04f4080    O..@    MOV      r0,#0x40000000
        0x0004041c:    f8d01240    ..@.    LDR      r1,[r0,#0x240]
        0x00040420:    f4413180    A..1    ORR      r1,r1,#0x10000
        0x00040424:    f8c01240    ..@.    STR      r1,[r0,#0x240]
        0x00040428:    4770        pG      BX       lr
        0x0004042a:    0000        ..      MOVS     r0,r0
    i.CLK_EnableModuleClock
    CLK_EnableModuleClock
        0x0004042c:    f000021f    ....    AND      r2,r0,#0x1f
        0x00040430:    2101        .!      MOVS     r1,#1
        0x00040432:    4091        .@      LSLS     r1,r1,r2
        0x00040434:    4a03        .J      LDR      r2,[pc,#12] ; [0x40444] = 0x40000204
        0x00040436:    0f80        ..      LSRS     r0,r0,#30
        0x00040438:    eb020080    ....    ADD      r0,r2,r0,LSL #2
        0x0004043c:    6802        .h      LDR      r2,[r0,#0]
        0x0004043e:    430a        .C      ORRS     r2,r2,r1
        0x00040440:    6002        .`      STR      r2,[r0,#0]
        0x00040442:    4770        pG      BX       lr
    $d
        0x00040444:    40000204    ...@    DCD    1073742340
    $t
    i.CLK_EnablePLL
    CLK_EnablePLL
        0x00040448:    e92d4ff8    -..O    PUSH     {r3-r11,lr}
        0x0004044c:    460d        .F      MOV      r5,r1
        0x0004044e:    4604        .F      MOV      r4,r0
        0x00040450:    f7ffffe2    ....    BL       CLK_DisablePLL ; 0x40418
        0x00040454:    f04f4080    O..@    MOV      r0,#0x40000000
        0x00040458:    4e48        HN      LDR      r6,[pc,#288] ; [0x4057c] = 0xb71b00
        0x0004045a:    f8d01200    ....    LDR      r1,[r0,#0x200]
        0x0004045e:    b1c4        ..      CBZ      r4,0x40492 ; CLK_EnablePLL + 74
        0x00040460:    f0410104    A...    ORR      r1,r1,#4
        0x00040464:    f8c01200    ....    STR      r1,[r0,#0x200]
        0x00040468:    2010        .       MOVS     r0,#0x10
        0x0004046a:    f000fa11    ....    BL       CLK_WaitClockReady ; 0x40890
        0x0004046e:    f44f2000    O..     MOV      r0,#0x80000
        0x00040472:    9000        ..      STR      r0,[sp,#0]
        0x00040474:    4842        BH      LDR      r0,[pc,#264] ; [0x40580] = 0xfd050f80
        0x00040476:    4943        CI      LDR      r1,[pc,#268] ; [0x40584] = 0x1ad27480
        0x00040478:    4428        (D      ADD      r0,r0,r5
        0x0004047a:    46b3        .F      MOV      r11,r6
        0x0004047c:    4288        .B      CMP      r0,r1
        0x0004047e:    d86d        m.      BHI      0x4055c ; CLK_EnablePLL + 276
        0x00040480:    f04f0900    O...    MOV      r9,#0
        0x00040484:    f04f32ff    O..2    MOV      r2,#0xffffffff
        0x00040488:    464f        OF      MOV      r7,r9
        0x0004048a:    464e        NF      MOV      r6,r9
        0x0004048c:    46ae        .F      MOV      lr,r5
        0x0004048e:    2001        .       MOVS     r0,#1
        0x00040490:    e015        ..      B        0x404be ; CLK_EnablePLL + 118
        0x00040492:    f0410101    A...    ORR      r1,r1,#1
        0x00040496:    f8c01200    ....    STR      r1,[r0,#0x200]
        0x0004049a:    2001        .       MOVS     r0,#1
        0x0004049c:    f000f9f8    ....    BL       CLK_WaitClockReady ; 0x40890
        0x000404a0:    2000        .       MOVS     r0,#0
        0x000404a2:    e7e6        ..      B        0x40472 ; CLK_EnablePLL + 42
        0x000404a4:    b3f2        ..      CBZ      r2,0x40524 ; CLK_EnablePLL + 220
        0x000404a6:    2803        .(      CMP      r0,#3
        0x000404a8:    d039        9.      BEQ      0x4051e ; CLK_EnablePLL + 214
        0x000404aa:    2804        .(      CMP      r0,#4
        0x000404ac:    d002        ..      BEQ      0x404b4 ; CLK_EnablePLL + 108
        0x000404ae:    2802        .(      CMP      r0,#2
        0x000404b0:    d105        ..      BNE      0x404be ; CLK_EnablePLL + 118
        0x000404b2:    e002        ..      B        0x404ba ; CLK_EnablePLL + 114
        0x000404b4:    ea4f058e    O...    LSL      r5,lr,#2
        0x000404b8:    e001        ..      B        0x404be ; CLK_EnablePLL + 118
        0x000404ba:    ea4f054e    O.N.    LSL      r5,lr,#1
        0x000404be:    2302        .#      MOVS     r3,#2
        0x000404c0:    b36a        j.      CBZ      r2,0x4051e ; CLK_EnablePLL + 214
        0x000404c2:    fbbbf1f3    ....    UDIV     r1,r11,r3
        0x000404c6:    4c30        0L      LDR      r4,[pc,#192] ; [0x40588] = 0xffc2f700
        0x000404c8:    f8dfc0bc    ....    LDR      r12,[pc,#188] ; [0x40588] = 0xffc2f700
        0x000404cc:    440c        .D      ADD      r4,r4,r1
        0x000404ce:    f1cc0c00    ....    RSB      r12,r12,#0
        0x000404d2:    4564        dE      CMP      r4,r12
        0x000404d4:    d820         .      BHI      0x40518 ; CLK_EnablePLL + 208
        0x000404d6:    2402        .$      MOVS     r4,#2
        0x000404d8:    f3c10a5d    ..].    UBFX     r10,r1,#1,#30
        0x000404dc:    f8dfc0a0    ....    LDR      r12,[pc,#160] ; [0x40580] = 0xfd050f80
        0x000404e0:    fb0af104    ....    MUL      r1,r10,r4
        0x000404e4:    eb01080c    ....    ADD      r8,r1,r12
        0x000404e8:    f8dfc0a0    ....    LDR      r12,[pc,#160] ; [0x4058c] = 0x47868c0
        0x000404ec:    45e0        .E      CMP      r8,r12
        0x000404ee:    d80e        ..      BHI      0x4050e ; CLK_EnablePLL + 198
        0x000404f0:    ebb10f95    ....    CMP      r1,r5,LSR #2
        0x000404f4:    d902        ..      BLS      0x404fc ; CLK_EnablePLL + 180
        0x000404f6:    eba10195    ....    SUB      r1,r1,r5,LSR #2
        0x000404fa:    e001        ..      B        0x40500 ; CLK_EnablePLL + 184
        0x000404fc:    ebc10195    ....    RSB      r1,r1,r5,LSR #2
        0x00040500:    4291        .B      CMP      r1,r2
        0x00040502:    d204        ..      BCS      0x4050e ; CLK_EnablePLL + 198
        0x00040504:    000a        ..      MOVS     r2,r1
        0x00040506:    4699        .F      MOV      r9,r3
        0x00040508:    4627        'F      MOV      r7,r4
        0x0004050a:    4606        .F      MOV      r6,r0
        0x0004050c:    d004        ..      BEQ      0x40518 ; CLK_EnablePLL + 208
        0x0004050e:    f2402101    @..!    MOV      r1,#0x201
        0x00040512:    1c64        d.      ADDS     r4,r4,#1
        0x00040514:    428c        .B      CMP      r4,r1
        0x00040516:    d9e1        ..      BLS      0x404dc ; CLK_EnablePLL + 148
        0x00040518:    1c5b        [.      ADDS     r3,r3,#1
        0x0004051a:    2b20         +      CMP      r3,#0x20
        0x0004051c:    d9d0        ..      BLS      0x404c0 ; CLK_EnablePLL + 120
        0x0004051e:    1c40        @.      ADDS     r0,r0,#1
        0x00040520:    2804        .(      CMP      r0,#4
        0x00040522:    e000        ..      B        0x40526 ; CLK_EnablePLL + 222
        0x00040524:    e000        ..      B        0x40528 ; CLK_EnablePLL + 224
        0x00040526:    d9bd        ..      BLS      0x404a4 ; CLK_EnablePLL + 92
        0x00040528:    4819        .H      LDR      r0,[pc,#100] ; [0x40590] = 0xffffc000
        0x0004052a:    9900        ..      LDR      r1,[sp,#0]
        0x0004052c:    eb003086    ...0    ADD      r0,r0,r6,LSL #14
        0x00040530:    4a18        .J      LDR      r2,[pc,#96] ; [0x40594] = 0xfffffe00
        0x00040532:    4308        .C      ORRS     r0,r0,r1
        0x00040534:    eb022149    ..I!    ADD      r1,r2,r9,LSL #9
        0x00040538:    4308        .C      ORRS     r0,r0,r1
        0x0004053a:    1eb9        ..      SUBS     r1,r7,#2
        0x0004053c:    4308        .C      ORRS     r0,r0,r1
        0x0004053e:    f04f4180    O..A    MOV      r1,#0x40000000
        0x00040542:    f8c10240    ..@.    STR      r0,[r1,#0x240]
        0x00040546:    2004        .       MOVS     r0,#4
        0x00040548:    f000f9a2    ....    BL       CLK_WaitClockReady ; 0x40890
        0x0004054c:    fb06f609    ....    MUL      r6,r6,r9
        0x00040550:    fbbbf0f6    ....    UDIV     r0,r11,r6
        0x00040554:    4378        xC      MULS     r0,r7,r0
        0x00040556:    0040        @.      LSLS     r0,r0,#1
        0x00040558:    e8bd8ff8    ....    POP      {r3-r11,pc}
        0x0004055c:    b15c        \.      CBZ      r4,0x40576 ; CLK_EnablePLL + 302
        0x0004055e:    490e        .I      LDR      r1,[pc,#56] ; [0x40598] = 0x8421e
        0x00040560:    f04f4080    O..@    MOV      r0,#0x40000000
        0x00040564:    f8c01240    ..@.    STR      r1,[r0,#0x240]
        0x00040568:    2004        .       MOVS     r0,#4
        0x0004056a:    f000f991    ....    BL       CLK_WaitClockReady ; 0x40890
        0x0004056e:    e8bd4ff8    ...O    POP      {r3-r11,lr}
        0x00040572:    f000b8a7    ....    B.W      CLK_GetPLLClockFreq ; 0x406c4
        0x00040576:    f244211e    D..!    MOV      r1,#0x421e
        0x0004057a:    e7f1        ..      B        0x40560 ; CLK_EnablePLL + 280
    $d
        0x0004057c:    00b71b00    ....    DCD    12000000
        0x00040580:    fd050f80    ....    DCD    4244967296
        0x00040584:    1ad27480    .t..    DCD    450000000
        0x00040588:    ffc2f700    ....    DCD    4290967296
        0x0004058c:    047868c0    .hx.    DCD    75000000
        0x00040590:    ffffc000    ....    DCD    4294950912
        0x00040594:    fffffe00    ....    DCD    4294966784
        0x00040598:    0008421e    .B..    DCD    541214
    $t
    i.CLK_EnableXtalRC
    CLK_EnableXtalRC
        0x0004059c:    f04f4180    O..A    MOV      r1,#0x40000000
        0x000405a0:    f8d12200    ..."    LDR      r2,[r1,#0x200]
        0x000405a4:    4302        .C      ORRS     r2,r2,r0
        0x000405a6:    f8c12200    ..."    STR      r2,[r1,#0x200]
        0x000405aa:    4770        pG      BX       lr
    i.CLK_GetCPUFreq
    CLK_GetCPUFreq
        0x000405ac:    b510        ..      PUSH     {r4,lr}
        0x000405ae:    f000fae7    ....    BL       SystemCoreClockUpdate ; 0x40b80
        0x000405b2:    4801        .H      LDR      r0,[pc,#4] ; [0x405b8] = 0x20000000
        0x000405b4:    6800        .h      LDR      r0,[r0,#0]
        0x000405b6:    bd10        ..      POP      {r4,pc}
    $d
        0x000405b8:    20000000    ...     DCD    536870912
    $t
    i.CLK_GetHCLKFreq
    CLK_GetHCLKFreq
        0x000405bc:    b510        ..      PUSH     {r4,lr}
        0x000405be:    f000fadf    ....    BL       SystemCoreClockUpdate ; 0x40b80
        0x000405c2:    4801        .H      LDR      r0,[pc,#4] ; [0x405c8] = 0x20000000
        0x000405c4:    6800        .h      LDR      r0,[r0,#0]
        0x000405c6:    bd10        ..      POP      {r4,pc}
    $d
        0x000405c8:    20000000    ...     DCD    536870912
    $t
    i.CLK_GetHXTFreq
    CLK_GetHXTFreq
        0x000405cc:    f04f4080    O..@    MOV      r0,#0x40000000
        0x000405d0:    f8d00200    ....    LDR      r0,[r0,#0x200]
        0x000405d4:    07c0        ..      LSLS     r0,r0,#31
        0x000405d6:    d000        ..      BEQ      0x405da ; CLK_GetHXTFreq + 14
        0x000405d8:    4800        .H      LDR      r0,[pc,#0] ; [0x405dc] = 0xb71b00
        0x000405da:    4770        pG      BX       lr
    $d
        0x000405dc:    00b71b00    ....    DCD    12000000
    $t
    i.CLK_GetLXTFreq
    CLK_GetLXTFreq
        0x000405e0:    f04f4080    O..@    MOV      r0,#0x40000000
        0x000405e4:    f8d00200    ....    LDR      r0,[r0,#0x200]
        0x000405e8:    0780        ..      LSLS     r0,r0,#30
        0x000405ea:    d502        ..      BPL      0x405f2 ; CLK_GetLXTFreq + 18
        0x000405ec:    f44f4000    O..@    MOV      r0,#0x8000
        0x000405f0:    4770        pG      BX       lr
        0x000405f2:    2000        .       MOVS     r0,#0
        0x000405f4:    4770        pG      BX       lr
        0x000405f6:    0000        ..      MOVS     r0,r0
    i.CLK_GetPCLK0Freq
    CLK_GetPCLK0Freq
        0x000405f8:    b510        ..      PUSH     {r4,lr}
        0x000405fa:    f000fac1    ....    BL       SystemCoreClockUpdate ; 0x40b80
        0x000405fe:    f04f4180    O..A    MOV      r1,#0x40000000
        0x00040602:    f8d10234    ..4.    LDR      r0,[r1,#0x234]
        0x00040606:    0742        B.      LSLS     r2,r0,#29
        0x00040608:    4813        .H      LDR      r0,[pc,#76] ; [0x40658] = 0x20000000
        0x0004060a:    d017        ..      BEQ      0x4063c ; CLK_GetPCLK0Freq + 68
        0x0004060c:    f8d12234    ..4"    LDR      r2,[r1,#0x234]
        0x00040610:    f0020207    ....    AND      r2,r2,#7
        0x00040614:    2a01        .*      CMP      r2,#1
        0x00040616:    d013        ..      BEQ      0x40640 ; CLK_GetPCLK0Freq + 72
        0x00040618:    f8d12234    ..4"    LDR      r2,[r1,#0x234]
        0x0004061c:    f0020207    ....    AND      r2,r2,#7
        0x00040620:    2a02        .*      CMP      r2,#2
        0x00040622:    d010        ..      BEQ      0x40646 ; CLK_GetPCLK0Freq + 78
        0x00040624:    f8d12234    ..4"    LDR      r2,[r1,#0x234]
        0x00040628:    f0020207    ....    AND      r2,r2,#7
        0x0004062c:    2a03        .*      CMP      r2,#3
        0x0004062e:    d00d        ..      BEQ      0x4064c ; CLK_GetPCLK0Freq + 84
        0x00040630:    f8d11234    ..4.    LDR      r1,[r1,#0x234]
        0x00040634:    f0010107    ....    AND      r1,r1,#7
        0x00040638:    2904        .)      CMP      r1,#4
        0x0004063a:    d00a        ..      BEQ      0x40652 ; CLK_GetPCLK0Freq + 90
        0x0004063c:    6800        .h      LDR      r0,[r0,#0]
        0x0004063e:    bd10        ..      POP      {r4,pc}
        0x00040640:    6800        .h      LDR      r0,[r0,#0]
        0x00040642:    0840        @.      LSRS     r0,r0,#1
        0x00040644:    bd10        ..      POP      {r4,pc}
        0x00040646:    6800        .h      LDR      r0,[r0,#0]
        0x00040648:    0880        ..      LSRS     r0,r0,#2
        0x0004064a:    bd10        ..      POP      {r4,pc}
        0x0004064c:    6800        .h      LDR      r0,[r0,#0]
        0x0004064e:    08c0        ..      LSRS     r0,r0,#3
        0x00040650:    bd10        ..      POP      {r4,pc}
        0x00040652:    6800        .h      LDR      r0,[r0,#0]
        0x00040654:    0900        ..      LSRS     r0,r0,#4
        0x00040656:    bd10        ..      POP      {r4,pc}
    $d
        0x00040658:    20000000    ...     DCD    536870912
    $t
    i.CLK_GetPCLK1Freq
    CLK_GetPCLK1Freq
        0x0004065c:    b510        ..      PUSH     {r4,lr}
        0x0004065e:    f000fa8f    ....    BL       SystemCoreClockUpdate ; 0x40b80
        0x00040662:    f04f4180    O..A    MOV      r1,#0x40000000
        0x00040666:    f8d10234    ..4.    LDR      r0,[r1,#0x234]
        0x0004066a:    f0100f70    ..p.    TST      r0,#0x70
        0x0004066e:    4814        .H      LDR      r0,[pc,#80] ; [0x406c0] = 0x20000000
        0x00040670:    d017        ..      BEQ      0x406a2 ; CLK_GetPCLK1Freq + 70
        0x00040672:    f8d12234    ..4"    LDR      r2,[r1,#0x234]
        0x00040676:    f3c21202    ....    UBFX     r2,r2,#4,#3
        0x0004067a:    2a01        .*      CMP      r2,#1
        0x0004067c:    d013        ..      BEQ      0x406a6 ; CLK_GetPCLK1Freq + 74
        0x0004067e:    f8d12234    ..4"    LDR      r2,[r1,#0x234]
        0x00040682:    f3c21202    ....    UBFX     r2,r2,#4,#3
        0x00040686:    2a02        .*      CMP      r2,#2
        0x00040688:    d010        ..      BEQ      0x406ac ; CLK_GetPCLK1Freq + 80
        0x0004068a:    f8d12234    ..4"    LDR      r2,[r1,#0x234]
        0x0004068e:    f3c21202    ....    UBFX     r2,r2,#4,#3
        0x00040692:    2a03        .*      CMP      r2,#3
        0x00040694:    d00d        ..      BEQ      0x406b2 ; CLK_GetPCLK1Freq + 86
        0x00040696:    f8d11234    ..4.    LDR      r1,[r1,#0x234]
        0x0004069a:    f3c11102    ....    UBFX     r1,r1,#4,#3
        0x0004069e:    2904        .)      CMP      r1,#4
        0x000406a0:    d00a        ..      BEQ      0x406b8 ; CLK_GetPCLK1Freq + 92
        0x000406a2:    6800        .h      LDR      r0,[r0,#0]
        0x000406a4:    bd10        ..      POP      {r4,pc}
        0x000406a6:    6800        .h      LDR      r0,[r0,#0]
        0x000406a8:    0840        @.      LSRS     r0,r0,#1
        0x000406aa:    bd10        ..      POP      {r4,pc}
        0x000406ac:    6800        .h      LDR      r0,[r0,#0]
        0x000406ae:    0880        ..      LSRS     r0,r0,#2
        0x000406b0:    bd10        ..      POP      {r4,pc}
        0x000406b2:    6800        .h      LDR      r0,[r0,#0]
        0x000406b4:    08c0        ..      LSRS     r0,r0,#3
        0x000406b6:    bd10        ..      POP      {r4,pc}
        0x000406b8:    6800        .h      LDR      r0,[r0,#0]
        0x000406ba:    0900        ..      LSRS     r0,r0,#4
        0x000406bc:    bd10        ..      POP      {r4,pc}
    $d
        0x000406be:    0000        ..      DCW    0
        0x000406c0:    20000000    ...     DCD    536870912
    $t
    i.CLK_GetPLLClockFreq
    CLK_GetPLLClockFreq
        0x000406c4:    b508        ..      PUSH     {r3,lr}
        0x000406c6:    a110        ..      ADR      r1,{pc}+0x42 ; 0x40708
        0x000406c8:    2000        .       MOVS     r0,#0
        0x000406ca:    6809        .h      LDR      r1,[r1,#0]
        0x000406cc:    9100        ..      STR      r1,[sp,#0]
        0x000406ce:    f04f4180    O..A    MOV      r1,#0x40000000
        0x000406d2:    f8d11240    ..@.    LDR      r1,[r1,#0x240]
        0x000406d6:    f4112fa0    .../    TST      r1,#0x50000
        0x000406da:    d113        ..      BNE      0x40704 ; CLK_GetPLLClockFreq + 64
        0x000406dc:    480b        .H      LDR      r0,[pc,#44] ; [0x4070c] = 0xb71b00
        0x000406de:    038a        ..      LSLS     r2,r1,#14
        0x000406e0:    d410        ..      BMI      0x40704 ; CLK_GetPLLClockFreq + 64
        0x000406e2:    f3c10008    ....    UBFX     r0,r1,#0,#9
        0x000406e6:    f3c13281    ...2    UBFX     r2,r1,#14,#2
        0x000406ea:    4b09        .K      LDR      r3,[pc,#36] ; [0x40710] = 0x2dc6c0
        0x000406ec:    1c80        ..      ADDS     r0,r0,#2
        0x000406ee:    f81d2002    ...     LDRB     r2,[sp,r2]
        0x000406f2:    f3c12144    ..D!    UBFX     r1,r1,#9,#5
        0x000406f6:    4358        XC      MULS     r0,r3,r0
        0x000406f8:    1c49        I.      ADDS     r1,r1,#1
        0x000406fa:    fb11f102    ....    SMULBB   r1,r1,r2
        0x000406fe:    fbb0f0f1    ....    UDIV     r0,r0,r1
        0x00040702:    00c0        ..      LSLS     r0,r0,#3
        0x00040704:    bd08        ..      POP      {r3,pc}
    $d
        0x00040706:    0000        ..      DCW    0
        0x00040708:    04020201    ....    DCD    67240449
        0x0004070c:    00b71b00    ....    DCD    12000000
        0x00040710:    002dc6c0    ..-.    DCD    3000000
    $t
    i.CLK_SetCoreClock
    CLK_SetCoreClock
        0x00040714:    b570        p.      PUSH     {r4-r6,lr}
        0x00040716:    f04f4480    O..D    MOV      r4,#0x40000000
        0x0004071a:    4606        .F      MOV      r6,r0
        0x0004071c:    f8d40250    ..P.    LDR      r0,[r4,#0x250]
        0x00040720:    f0000510    ....    AND      r5,r0,#0x10
        0x00040724:    481b        .H      LDR      r0,[pc,#108] ; [0x40794] = 0xb71b000
        0x00040726:    4286        .B      CMP      r6,r0
        0x00040728:    d900        ..      BLS      0x4072c ; CLK_SetCoreClock + 24
        0x0004072a:    4606        .F      MOV      r6,r0
        0x0004072c:    f8d40200    ....    LDR      r0,[r4,#0x200]
        0x00040730:    f0400004    @...    ORR      r0,r0,#4
        0x00040734:    f8c40200    ....    STR      r0,[r4,#0x200]
        0x00040738:    2010        .       MOVS     r0,#0x10
        0x0004073a:    f5047400    ...t    ADD      r4,r4,#0x200
        0x0004073e:    f000f8a7    ....    BL       CLK_WaitClockReady ; 0x40890
        0x00040742:    6920         i      LDR      r0,[r4,#0x10]
        0x00040744:    f0400007    @...    ORR      r0,r0,#7
        0x00040748:    6120         a      STR      r0,[r4,#0x10]
        0x0004074a:    6a20         j      LDR      r0,[r4,#0x20]
        0x0004074c:    f020000f     ...    BIC      r0,r0,#0xf
        0x00040750:    6220         b      STR      r0,[r4,#0x20]
        0x00040752:    6820         h      LDR      r0,[r4,#0]
        0x00040754:    f5a47400    ...t    SUB      r4,r4,#0x200
        0x00040758:    07c0        ..      LSLS     r0,r0,#31
        0x0004075a:    4631        1F      MOV      r1,r6
        0x0004075c:    d004        ..      BEQ      0x40768 ; CLK_SetCoreClock + 84
        0x0004075e:    2000        .       MOVS     r0,#0
        0x00040760:    f7fffe72    ..r.    BL       CLK_EnablePLL ; 0x40448
        0x00040764:    4606        .F      MOV      r6,r0
        0x00040766:    e008        ..      B        0x4077a ; CLK_SetCoreClock + 102
        0x00040768:    f44f2000    O..     MOV      r0,#0x80000
        0x0004076c:    f7fffe6c    ..l.    BL       CLK_EnablePLL ; 0x40448
        0x00040770:    4606        .F      MOV      r6,r0
        0x00040772:    f8d40250    ..P.    LDR      r0,[r4,#0x250]
        0x00040776:    f0000510    ....    AND      r5,r0,#0x10
        0x0004077a:    2100        .!      MOVS     r1,#0
        0x0004077c:    2002        .       MOVS     r0,#2
        0x0004077e:    f000f80b    ....    BL       CLK_SetHCLK ; 0x40798
        0x00040782:    b92d        -.      CBNZ     r5,0x40790 ; CLK_SetCoreClock + 124
        0x00040784:    f8d40200    ....    LDR      r0,[r4,#0x200]
        0x00040788:    f0200004     ...    BIC      r0,r0,#4
        0x0004078c:    f8c40200    ....    STR      r0,[r4,#0x200]
        0x00040790:    4630        0F      MOV      r0,r6
        0x00040792:    bd70        p.      POP      {r4-r6,pc}
    $d
        0x00040794:    0b71b000    ..q.    DCD    192000000
    $t
    i.CLK_SetHCLK
    CLK_SetHCLK
        0x00040798:    e92d41f0    -..A    PUSH     {r4-r8,lr}
        0x0004079c:    f04f4480    O..D    MOV      r4,#0x40000000
        0x000407a0:    4607        .F      MOV      r7,r0
        0x000407a2:    f8d40250    ..P.    LDR      r0,[r4,#0x250]
        0x000407a6:    460e        .F      MOV      r6,r1
        0x000407a8:    f0000510    ....    AND      r5,r0,#0x10
        0x000407ac:    f8d40200    ....    LDR      r0,[r4,#0x200]
        0x000407b0:    f0400004    @...    ORR      r0,r0,#4
        0x000407b4:    f8c40200    ....    STR      r0,[r4,#0x200]
        0x000407b8:    2010        .       MOVS     r0,#0x10
        0x000407ba:    f5047400    ...t    ADD      r4,r4,#0x200
        0x000407be:    f000f867    ..g.    BL       CLK_WaitClockReady ; 0x40890
        0x000407c2:    6920         i      LDR      r0,[r4,#0x10]
        0x000407c4:    f0400007    @...    ORR      r0,r0,#7
        0x000407c8:    6120         a      STR      r0,[r4,#0x10]
        0x000407ca:    6a20         j      LDR      r0,[r4,#0x20]
        0x000407cc:    f020000f     ...    BIC      r0,r0,#0xf
        0x000407d0:    4330        0C      ORRS     r0,r0,r6
        0x000407d2:    6220         b      STR      r0,[r4,#0x20]
        0x000407d4:    6920         i      LDR      r0,[r4,#0x10]
        0x000407d6:    f0200007     ...    BIC      r0,r0,#7
        0x000407da:    4338        8C      ORRS     r0,r0,r7
        0x000407dc:    6120         a      STR      r0,[r4,#0x10]
        0x000407de:    f5a47400    ...t    SUB      r4,r4,#0x200
        0x000407e2:    f000f9cd    ....    BL       SystemCoreClockUpdate ; 0x40b80
        0x000407e6:    2d00        .-      CMP      r5,#0
        0x000407e8:    d105        ..      BNE      0x407f6 ; CLK_SetHCLK + 94
        0x000407ea:    f8d40200    ....    LDR      r0,[r4,#0x200]
        0x000407ee:    f0200004     ...    BIC      r0,r0,#4
        0x000407f2:    f8c40200    ....    STR      r0,[r4,#0x200]
        0x000407f6:    e8bd81f0    ....    POP      {r4-r8,pc}
        0x000407fa:    0000        ..      MOVS     r0,r0
    i.CLK_SetModuleClock
    CLK_SetModuleClock
        0x000407fc:    b5f0        ..      PUSH     {r4-r7,lr}
        0x000407fe:    f4103f7f    ...?    TST      r0,#0x3fc00
        0x00040802:    d02e        ..      BEQ      0x40862 ; CLK_SetModuleClock + 102
        0x00040804:    f04f4380    O..C    MOV      r3,#0x40000000
        0x00040808:    f8d331f4    ...1    LDR      r3,[r3,#0x1f4]
        0x0004080c:    f8dfc078    ..x.    LDR      r12,[pc,#120] ; [0x40888] = 0x4000022c
        0x00040810:    b2df        ..      UXTB     r7,r3
        0x00040812:    4b1d        .K      LDR      r3,[pc,#116] ; [0x40888] = 0x4000022c
        0x00040814:    f3c04481    ...D    UBFX     r4,r0,#18,#2
        0x00040818:    3b0c        .;      SUBS     r3,r3,#0xc
        0x0004081a:    ea6f4590    o..E    MVN      r5,r0,LSR #18
        0x0004081e:    f10c0604    ....    ADD      r6,r12,#4
        0x00040822:    eb030384    ....    ADD      r3,r3,r4,LSL #2
        0x00040826:    2f01        ./      CMP      r7,#1
        0x00040828:    d002        ..      BEQ      0x40830 ; CLK_SetModuleClock + 52
        0x0004082a:    2c02        .,      CMP      r4,#2
        0x0004082c:    d00d        ..      BEQ      0x4084a ; CLK_SetModuleClock + 78
        0x0004082e:    e001        ..      B        0x40834 ; CLK_SetModuleClock + 56
        0x00040830:    2c02        .,      CMP      r4,#2
        0x00040832:    d002        ..      BEQ      0x4083a ; CLK_SetModuleClock + 62
        0x00040834:    07ac        ..      LSLS     r4,r5,#30
        0x00040836:    d00a        ..      BEQ      0x4084e ; CLK_SetModuleClock + 82
        0x00040838:    e00a        ..      B        0x40850 ; CLK_SetModuleClock + 84
        0x0004083a:    43c3        .C      MVNS     r3,r0
        0x0004083c:    06dc        ..      LSLS     r4,r3,#27
        0x0004083e:    4b13        .K      LDR      r3,[pc,#76] ; [0x4088c] = 0x40000228
        0x00040840:    d006        ..      BEQ      0x40850 ; CLK_SetModuleClock + 84
        0x00040842:    f000041f    ....    AND      r4,r0,#0x1f
        0x00040846:    2c1d        .,      CMP      r4,#0x1d
        0x00040848:    d002        ..      BEQ      0x40850 ; CLK_SetModuleClock + 84
        0x0004084a:    4663        cF      MOV      r3,r12
        0x0004084c:    e000        ..      B        0x40850 ; CLK_SetModuleClock + 84
        0x0004084e:    4633        3F      MOV      r3,r6
        0x00040850:    681c        .h      LDR      r4,[r3,#0]
        0x00040852:    f3c02587    ...%    UBFX     r5,r0,#10,#8
        0x00040856:    f3c01644    ..D.    UBFX     r6,r0,#5,#5
        0x0004085a:    40b5        .@      LSLS     r5,r5,r6
        0x0004085c:    43ac        .C      BICS     r4,r4,r5
        0x0004085e:    4314        .C      ORRS     r4,r4,r2
        0x00040860:    601c        .`      STR      r4,[r3,#0]
        0x00040862:    0e42        B.      LSRS     r2,r0,#25
        0x00040864:    0752        R.      LSLS     r2,r2,#29
        0x00040866:    d00e        ..      BEQ      0x40886 ; CLK_SetModuleClock + 138
        0x00040868:    4b08        .K      LDR      r3,[pc,#32] ; [0x4088c] = 0x40000228
        0x0004086a:    f3c07201    ...r    UBFX     r2,r0,#28,#2
        0x0004086e:    3b18        .;      SUBS     r3,r3,#0x18
        0x00040870:    eb030282    ....    ADD      r2,r3,r2,LSL #2
        0x00040874:    6813        .h      LDR      r3,[r2,#0]
        0x00040876:    f3c06442    ..Bd    UBFX     r4,r0,#25,#3
        0x0004087a:    f3c05004    ...P    UBFX     r0,r0,#20,#5
        0x0004087e:    4084        .@      LSLS     r4,r4,r0
        0x00040880:    43a3        .C      BICS     r3,r3,r4
        0x00040882:    430b        .C      ORRS     r3,r3,r1
        0x00040884:    6013        .`      STR      r3,[r2,#0]
        0x00040886:    bdf0        ..      POP      {r4-r7,pc}
    $d
        0x00040888:    4000022c    ,..@    DCD    1073742380
        0x0004088c:    40000228    (..@    DCD    1073742376
    $t
    i.CLK_WaitClockReady
    CLK_WaitClockReady
        0x00040890:    b570        p.      PUSH     {r4-r6,lr}
        0x00040892:    4605        .F      MOV      r5,r0
        0x00040894:    480b        .H      LDR      r0,[pc,#44] ; [0x408c4] = 0x20000000
        0x00040896:    4e0c        .N      LDR      r6,[pc,#48] ; [0x408c8] = 0x20000030
        0x00040898:    2401        .$      MOVS     r4,#1
        0x0004089a:    6800        .h      LDR      r0,[r0,#0]
        0x0004089c:    0841        A.      LSRS     r1,r0,#1
        0x0004089e:    2000        .       MOVS     r0,#0
        0x000408a0:    07a2        ..      LSLS     r2,r4,#30
        0x000408a2:    6030        0`      STR      r0,[r6,#0]
        0x000408a4:    e001        ..      B        0x408aa ; CLK_WaitClockReady + 26
        0x000408a6:    1e49        I.      SUBS     r1,r1,#1
        0x000408a8:    d006        ..      BEQ      0x408b8 ; CLK_WaitClockReady + 40
        0x000408aa:    f8d23250    ..P2    LDR      r3,[r2,#0x250]
        0x000408ae:    ea350003    5...    BICS     r0,r5,r3
        0x000408b2:    d1f8        ..      BNE      0x408a6 ; CLK_WaitClockReady + 22
        0x000408b4:    b109        ..      CBZ      r1,0x408ba ; CLK_WaitClockReady + 42
        0x000408b6:    e003        ..      B        0x408c0 ; CLK_WaitClockReady + 48
        0x000408b8:    2400        .$      MOVS     r4,#0
        0x000408ba:    f04f30ff    O..0    MOV      r0,#0xffffffff
        0x000408be:    6030        0`      STR      r0,[r6,#0]
        0x000408c0:    4620         F      MOV      r0,r4
        0x000408c2:    bd70        p.      POP      {r4-r6,pc}
    $d
        0x000408c4:    20000000    ...     DCD    536870912
        0x000408c8:    20000030    0..     DCD    536870960
    $t
    i.FMC_Open
    FMC_Open
        0x000408cc:    4802        .H      LDR      r0,[pc,#8] ; [0x408d8] = 0x4000c000
        0x000408ce:    6801        .h      LDR      r1,[r0,#0]
        0x000408d0:    f0410101    A...    ORR      r1,r1,#1
        0x000408d4:    6001        .`      STR      r1,[r0,#0]
        0x000408d6:    4770        pG      BX       lr
    $d
        0x000408d8:    4000c000    ...@    DCD    1073790976
    $t
    i.FMC_SetVectorPageAddr
    FMC_SetVectorPageAddr
        0x000408dc:    490c        .I      LDR      r1,[pc,#48] ; [0x40910] = 0x20000000
        0x000408de:    b510        ..      PUSH     {r4,lr}
        0x000408e0:    6809        .h      LDR      r1,[r1,#0]
        0x000408e2:    220a        ."      MOVS     r2,#0xa
        0x000408e4:    fbb1f1f2    ....    UDIV     r1,r1,r2
        0x000408e8:    4b0a        .K      LDR      r3,[pc,#40] ; [0x40914] = 0x20000034
        0x000408ea:    2200        ."      MOVS     r2,#0
        0x000408ec:    0049        I.      LSLS     r1,r1,#1
        0x000408ee:    601a        .`      STR      r2,[r3,#0]
        0x000408f0:    4a09        .J      LDR      r2,[pc,#36] ; [0x40918] = 0x4000c000
        0x000408f2:    242e        .$      MOVS     r4,#0x2e
        0x000408f4:    60d4        .`      STR      r4,[r2,#0xc]
        0x000408f6:    6050        P`      STR      r0,[r2,#4]
        0x000408f8:    2001        .       MOVS     r0,#1
        0x000408fa:    6110        .a      STR      r0,[r2,#0x10]
        0x000408fc:    e002        ..      B        0x40904 ; FMC_SetVectorPageAddr + 40
        0x000408fe:    6910        .i      LDR      r0,[r2,#0x10]
        0x00040900:    2800        .(      CMP      r0,#0
        0x00040902:    d004        ..      BEQ      0x4090e ; FMC_SetVectorPageAddr + 50
        0x00040904:    1e49        I.      SUBS     r1,r1,#1
        0x00040906:    d2fa        ..      BCS      0x408fe ; FMC_SetVectorPageAddr + 34
        0x00040908:    f04f30ff    O..0    MOV      r0,#0xffffffff
        0x0004090c:    6018        .`      STR      r0,[r3,#0]
        0x0004090e:    bd10        ..      POP      {r4,pc}
    $d
        0x00040910:    20000000    ...     DCD    536870912
        0x00040914:    20000034    4..     DCD    536870964
        0x00040918:    4000c000    ...@    DCD    1073790976
    $t
    i.GET_VECMAP
    GET_VECMAP
        0x0004091c:    b510        ..      PUSH     {r4,lr}
        0x0004091e:    f000f8d3    ....    BL       SYS_UnlockReg ; 0x40ac8
        0x00040922:    f7ffffd3    ....    BL       FMC_Open ; 0x408cc
        0x00040926:    4806        .H      LDR      r0,[pc,#24] ; [0x40940] = 0x4000c000
        0x00040928:    6c01        .l      LDR      r1,[r0,#0x40]
        0x0004092a:    4806        .H      LDR      r0,[pc,#24] ; [0x40944] = 0xfffe00
        0x0004092c:    4001        .@      ANDS     r1,r1,r0
        0x0004092e:    4806        .H      LDR      r0,[pc,#24] ; [0x40948] = 0x20000038
        0x00040930:    6081        .`      STR      r1,[r0,#8]
        0x00040932:    6882        .h      LDR      r2,[r0,#8]
        0x00040934:    e8bd4010    ...@    POP      {r4,lr}
        0x00040938:    4904        .I      LDR      r1,[pc,#16] ; [0x4094c] = 0x41a45
        0x0004093a:    a005        ..      ADR      r0,{pc}+0x16 ; 0x40950
        0x0004093c:    f000bbb8    ....    B.W      __0printf$8 ; 0x410b0
    $d
        0x00040940:    4000c000    ...@    DCD    1073790976
        0x00040944:    00fffe00    ....    DCD    16776704
        0x00040948:    20000038    8..     DCD    536870968
        0x0004094c:    00041a45    E...    DCD    268869
        0x00040950:    303a7325    %s:0    DCD    809136933
        0x00040954:    58382578    x%8X    DCD    1480074616
        0x00040958:    00000a0d    ....    DCD    2573
    $t
    i.GPIO_Init
    GPIO_Init
        0x0004095c:    b510        ..      PUSH     {r4,lr}
        0x0004095e:    f04f4080    O..@    MOV      r0,#0x40000000
        0x00040962:    6e81        .n      LDR      r1,[r0,#0x68]
        0x00040964:    f021010f    !...    BIC      r1,r1,#0xf
        0x00040968:    6681        .f      STR      r1,[r0,#0x68]
        0x0004096a:    6e81        .n      LDR      r1,[r0,#0x68]
        0x0004096c:    f02101f0    !...    BIC      r1,r1,#0xf0
        0x00040970:    6681        .f      STR      r1,[r0,#0x68]
        0x00040972:    6e81        .n      LDR      r1,[r0,#0x68]
        0x00040974:    f4216170    !.pa    BIC      r1,r1,#0xf00
        0x00040978:    6681        .f      STR      r1,[r0,#0x68]
        0x0004097a:    4c09        .L      LDR      r4,[pc,#36] ; [0x409a0] = 0x400041c0
        0x0004097c:    2201        ."      MOVS     r2,#1
        0x0004097e:    4611        .F      MOV      r1,r2
        0x00040980:    4620         F      MOV      r0,r4
        0x00040982:    f000f80f    ....    BL       GPIO_SetMode ; 0x409a4
        0x00040986:    2201        ."      MOVS     r2,#1
        0x00040988:    2102        .!      MOVS     r1,#2
        0x0004098a:    4620         F      MOV      r0,r4
        0x0004098c:    f000f80a    ....    BL       GPIO_SetMode ; 0x409a4
        0x00040990:    4620         F      MOV      r0,r4
        0x00040992:    2201        ."      MOVS     r2,#1
        0x00040994:    e8bd4010    ...@    POP      {r4,lr}
        0x00040998:    2104        .!      MOVS     r1,#4
        0x0004099a:    f000b803    ....    B.W      GPIO_SetMode ; 0x409a4
    $d
        0x0004099e:    0000        ..      DCW    0
        0x000409a0:    400041c0    .A.@    DCD    1073758656
    $t
    i.GPIO_SetMode
    GPIO_SetMode
        0x000409a4:    b5f0        ..      PUSH     {r4-r7,lr}
        0x000409a6:    2300        .#      MOVS     r3,#0
        0x000409a8:    2701        .'      MOVS     r7,#1
        0x000409aa:    2503        .%      MOVS     r5,#3
        0x000409ac:    fa07f403    ....    LSL      r4,r7,r3
        0x000409b0:    438c        .C      BICS     r4,r4,r1
        0x000409b2:    d109        ..      BNE      0x409c8 ; GPIO_SetMode + 36
        0x000409b4:    6806        .h      LDR      r6,[r0,#0]
        0x000409b6:    005c        \.      LSLS     r4,r3,#1
        0x000409b8:    fa05fc04    ....    LSL      r12,r5,r4
        0x000409bc:    ea26060c    &...    BIC      r6,r6,r12
        0x000409c0:    fa02f404    ....    LSL      r4,r2,r4
        0x000409c4:    4326        &C      ORRS     r6,r6,r4
        0x000409c6:    6006        .`      STR      r6,[r0,#0]
        0x000409c8:    1c5b        [.      ADDS     r3,r3,#1
        0x000409ca:    2b10        .+      CMP      r3,#0x10
        0x000409cc:    d3ee        ..      BCC      0x409ac ; GPIO_SetMode + 8
        0x000409ce:    bdf0        ..      POP      {r4-r7,pc}
    i.Hard_Fault_Handler
    Hard_Fault_Handler
    __tagsym$$used
        0x000409d0:    4604        .F      MOV      r4,r0
        0x000409d2:    a003        ..      ADR      r0,{pc}+0xe ; 0x409e0
        0x000409d4:    f000fb6c    ..l.    BL       __0printf$8 ; 0x410b0
        0x000409d8:    4620         F      MOV      r0,r4
        0x000409da:    f000ff9f    ....    BL       stackDump ; 0x4191c
        0x000409de:    e7fe        ..      B        0x409de ; Hard_Fault_Handler + 14
    $d
        0x000409e0:    48206e49    In H    DCD    1210084937
        0x000409e4:    20647261    ard     DCD    543453793
        0x000409e8:    6c756146    Faul    DCD    1819631942
        0x000409ec:    61482074    t Ha    DCD    1632116852
        0x000409f0:    656c646e    ndle    DCD    1701602414
        0x000409f4:    00000a72    r...    DCD    2674
    $t
    i.NVIC_EnableIRQ
    NVIC_EnableIRQ
        0x000409f8:    f000021f    ....    AND      r2,r0,#0x1f
        0x000409fc:    2101        .!      MOVS     r1,#1
        0x000409fe:    4091        .@      LSLS     r1,r1,r2
        0x00040a00:    0940        @.      LSRS     r0,r0,#5
        0x00040a02:    0080        ..      LSLS     r0,r0,#2
        0x00040a04:    f10020e0    ...     ADD      r0,r0,#0xe000e000
        0x00040a08:    f8c01100    ....    STR      r1,[r0,#0x100]
        0x00040a0c:    4770        pG      BX       lr
    i.SYS_ClearResetSrc
    SYS_ClearResetSrc
        0x00040a0e:    f04f4180    O..A    MOV      r1,#0x40000000
        0x00040a12:    684a        Jh      LDR      r2,[r1,#4]
        0x00040a14:    4302        .C      ORRS     r2,r2,r0
        0x00040a16:    604a        J`      STR      r2,[r1,#4]
        0x00040a18:    4770        pG      BX       lr
    i.SYS_GetResetSrc
    SYS_GetResetSrc
        0x00040a1a:    f04f4080    O..@    MOV      r0,#0x40000000
        0x00040a1e:    6840        @h      LDR      r0,[r0,#4]
        0x00040a20:    4770        pG      BX       lr
        0x00040a22:    0000        ..      MOVS     r0,r0
    i.SYS_Init
    SYS_Init
        0x00040a24:    b570        p.      PUSH     {r4-r6,lr}
        0x00040a26:    f000f84f    ..O.    BL       SYS_UnlockReg ; 0x40ac8
        0x00040a2a:    2004        .       MOVS     r0,#4
        0x00040a2c:    f7fffdb6    ....    BL       CLK_EnableXtalRC ; 0x4059c
        0x00040a30:    2010        .       MOVS     r0,#0x10
        0x00040a32:    f7ffff2d    ..-.    BL       CLK_WaitClockReady ; 0x40890
        0x00040a36:    4814        .H      LDR      r0,[pc,#80] ; [0x40a88] = 0xb71b000
        0x00040a38:    f7fffe6c    ..l.    BL       CLK_SetCoreClock ; 0x40714
        0x00040a3c:    f04f4480    O..D    MOV      r4,#0x40000000
        0x00040a40:    2500        .%      MOVS     r5,#0
        0x00040a42:    f8c45234    ..4R    STR      r5,[r4,#0x234]
        0x00040a46:    4e11        .N      LDR      r6,[pc,#68] ; [0x40a8c] = 0x57803d10
        0x00040a48:    4630        0F      MOV      r0,r6
        0x00040a4a:    f7fffcef    ....    BL       CLK_EnableModuleClock ; 0x4042c
        0x00040a4e:    2200        ."      MOVS     r2,#0
        0x00040a50:    f04f7140    O.@q    MOV      r1,#0x3000000
        0x00040a54:    4630        0F      MOV      r0,r6
        0x00040a56:    f7fffed1    ....    BL       CLK_SetModuleClock ; 0x407fc
        0x00040a5a:    6be0        .k      LDR      r0,[r4,#0x3c]
        0x00040a5c:    f420007f     ...    BIC      r0,r0,#0xff0000
        0x00040a60:    63e0        .c      STR      r0,[r4,#0x3c]
        0x00040a62:    6be0        .k      LDR      r0,[r4,#0x3c]
        0x00040a64:    f44000cc    @...    ORR      r0,r0,#0x660000
        0x00040a68:    63e0        .c      STR      r0,[r4,#0x3c]
        0x00040a6a:    4e09        .N      LDR      r6,[pc,#36] ; [0x40a90] = 0x5ec00003
        0x00040a6c:    4630        0F      MOV      r0,r6
        0x00040a6e:    f7fffcdd    ....    BL       CLK_EnableModuleClock ; 0x4042c
        0x00040a72:    2200        ."      MOVS     r2,#0
        0x00040a74:    f44f41e0    O..A    MOV      r1,#0x7000
        0x00040a78:    4630        0F      MOV      r0,r6
        0x00040a7a:    f7fffebf    ....    BL       CLK_SetModuleClock ; 0x407fc
        0x00040a7e:    f000f87f    ....    BL       SystemCoreClockUpdate ; 0x40b80
        0x00040a82:    f8c45100    ...Q    STR      r5,[r4,#0x100]
        0x00040a86:    bd70        p.      POP      {r4-r6,pc}
    $d
        0x00040a88:    0b71b000    ..q.    DCD    192000000
        0x00040a8c:    57803d10    .=.W    DCD    1468022032
        0x00040a90:    5ec00003    ...^    DCD    1589641219
    $t
    i.SYS_ResetCPU
    SYS_ResetCPU
        0x00040a94:    f04f4080    O..@    MOV      r0,#0x40000000
        0x00040a98:    6881        .h      LDR      r1,[r0,#8]
        0x00040a9a:    f0410102    A...    ORR      r1,r1,#2
        0x00040a9e:    6081        .`      STR      r1,[r0,#8]
        0x00040aa0:    4770        pG      BX       lr
    i.SYS_ResetChip
    SYS_ResetChip
        0x00040aa2:    f04f4080    O..@    MOV      r0,#0x40000000
        0x00040aa6:    6881        .h      LDR      r1,[r0,#8]
        0x00040aa8:    f0410101    A...    ORR      r1,r1,#1
        0x00040aac:    6081        .`      STR      r1,[r0,#8]
        0x00040aae:    4770        pG      BX       lr
    i.SYS_ResetModule
    SYS_ResetModule
        0x00040ab0:    2101        .!      MOVS     r1,#1
        0x00040ab2:    4a04        .J      LDR      r2,[pc,#16] ; [0x40ac4] = 0x40000008
        0x00040ab4:    4081        .@      LSLS     r1,r1,r0
        0x00040ab6:    eb026010    ...`    ADD      r0,r2,r0,LSR #24
        0x00040aba:    6802        .h      LDR      r2,[r0,#0]
        0x00040abc:    430a        .C      ORRS     r2,r2,r1
        0x00040abe:    438a        .C      BICS     r2,r2,r1
        0x00040ac0:    6002        .`      STR      r2,[r0,#0]
        0x00040ac2:    4770        pG      BX       lr
    $d
        0x00040ac4:    40000008    ...@    DCD    1073741832
    $t
    i.SYS_UnlockReg
    SYS_UnlockReg
        0x00040ac8:    2159        Y!      MOVS     r1,#0x59
        0x00040aca:    b510        ..      PUSH     {r4,lr}
        0x00040acc:    0788        ..      LSLS     r0,r1,#30
        0x00040ace:    2216        ."      MOVS     r2,#0x16
        0x00040ad0:    2388        .#      MOVS     r3,#0x88
        0x00040ad2:    f8c01100    ....    STR      r1,[r0,#0x100]
        0x00040ad6:    f8c02100    ...!    STR      r2,[r0,#0x100]
        0x00040ada:    f8c03100    ...1    STR      r3,[r0,#0x100]
        0x00040ade:    f8d04100    ...A    LDR      r4,[r0,#0x100]
        0x00040ae2:    2c00        .,      CMP      r4,#0
        0x00040ae4:    d0f5        ..      BEQ      0x40ad2 ; SYS_UnlockReg + 10
        0x00040ae6:    bd10        ..      POP      {r4,pc}
    i.SendChar
    SendChar
        0x00040ae8:    4906        .I      LDR      r1,[pc,#24] ; [0x40b04] = 0x40070000
        0x00040aea:    698a        .i      LDR      r2,[r1,#0x18]
        0x00040aec:    0212        ..      LSLS     r2,r2,#8
        0x00040aee:    d4fc        ..      BMI      0x40aea ; SendChar + 2
        0x00040af0:    280a        .(      CMP      r0,#0xa
        0x00040af2:    d104        ..      BNE      0x40afe ; SendChar + 22
        0x00040af4:    220d        ."      MOVS     r2,#0xd
        0x00040af6:    600a        .`      STR      r2,[r1,#0]
        0x00040af8:    698a        .i      LDR      r2,[r1,#0x18]
        0x00040afa:    0212        ..      LSLS     r2,r2,#8
        0x00040afc:    d4fc        ..      BMI      0x40af8 ; SendChar + 16
        0x00040afe:    6008        .`      STR      r0,[r1,#0]
        0x00040b00:    4770        pG      BX       lr
    $d
        0x00040b02:    0000        ..      DCW    0
        0x00040b04:    40070000    ...@    DCD    1074200576
    $t
    i.SysTick_Handler
    SysTick_Handler
        0x00040b08:    b500        ..      PUSH     {lr}
        0x00040b0a:    f000ff5b    ..[.    BL       systick_counter ; 0x419c4
        0x00040b0e:    4903        .I      LDR      r1,[pc,#12] ; [0x40b1c] = 0x20000038
        0x00040b10:    6808        .h      LDR      r0,[r1,#0]
        0x00040b12:    1c40        @.      ADDS     r0,r0,#1
        0x00040b14:    d100        ..      BNE      0x40b18 ; SysTick_Handler + 16
        0x00040b16:    6008        .`      STR      r0,[r1,#0]
        0x00040b18:    bd00        ..      POP      {pc}
    $d
        0x00040b1a:    0000        ..      DCW    0
        0x00040b1c:    20000038    8..     DCD    536870968
    $t
    i.SysTick_enable
    SysTick_enable
        0x00040b20:    4a0d        .J      LDR      r2,[pc,#52] ; [0x40b58] = 0x20000038
        0x00040b22:    b510        ..      PUSH     {r4,lr}
        0x00040b24:    2100        .!      MOVS     r1,#0
        0x00040b26:    6011        .`      STR      r1,[r2,#0]
        0x00040b28:    490c        .I      LDR      r1,[pc,#48] ; [0x40b5c] = 0x20000000
        0x00040b2a:    6809        .h      LDR      r1,[r1,#0]
        0x00040b2c:    fbb1f0f0    ....    UDIV     r0,r1,r0
        0x00040b30:    1e40        @.      SUBS     r0,r0,#1
        0x00040b32:    f1b07f80    ....    CMP      r0,#0x1000000
        0x00040b36:    d303        ..      BCC      0x40b40 ; SysTick_enable + 32
        0x00040b38:    a009        ..      ADR      r0,{pc}+0x28 ; 0x40b60
        0x00040b3a:    f000fab9    ....    BL       __0printf$8 ; 0x410b0
        0x00040b3e:    e7fe        ..      B        0x40b3e ; SysTick_enable + 30
        0x00040b40:    f04f21e0    O..!    MOV      r1,#0xe000e000
        0x00040b44:    6148        Ha      STR      r0,[r1,#0x14]
        0x00040b46:    4a0d        .J      LDR      r2,[pc,#52] ; [0x40b7c] = 0xe000e00f
        0x00040b48:    20f0        .       MOVS     r0,#0xf0
        0x00040b4a:    f8820d14    ....    STRB     r0,[r2,#0xd14]
        0x00040b4e:    2000        .       MOVS     r0,#0
        0x00040b50:    6188        .a      STR      r0,[r1,#0x18]
        0x00040b52:    2007        .       MOVS     r0,#7
        0x00040b54:    6108        .a      STR      r0,[r1,#0x10]
        0x00040b56:    bd10        ..      POP      {r4,pc}
    $d
        0x00040b58:    20000038    8..     DCD    536870968
        0x00040b5c:    20000000    ...     DCD    536870912
        0x00040b60:    20746553    Set     DCD    544499027
        0x00040b64:    74737973    syst    DCD    1953724787
        0x00040b68:    74206d65    em t    DCD    1948282213
        0x00040b6c:    206b6369    ick     DCD    543908713
        0x00040b70:    6f727265    erro    DCD    1869771365
        0x00040b74:    0a212172    r!!.    DCD    169943410
        0x00040b78:    00000000    ....    DCD    0
        0x00040b7c:    e000e00f    ....    DCD    3758153743
    $t
    i.SystemCoreClockUpdate
    SystemCoreClockUpdate
        0x00040b80:    b510        ..      PUSH     {r4,lr}
        0x00040b82:    f7fffd9f    ....    BL       CLK_GetPLLClockFreq ; 0x406c4
        0x00040b86:    4a0e        .J      LDR      r2,[pc,#56] ; [0x40bc0] = 0x20000000
        0x00040b88:    f04f4380    O..C    MOV      r3,#0x40000000
        0x00040b8c:    6090        .`      STR      r0,[r2,#8]
        0x00040b8e:    f8d31210    ....    LDR      r1,[r3,#0x210]
        0x00040b92:    f0010107    ....    AND      r1,r1,#7
        0x00040b96:    2902        .)      CMP      r1,#2
        0x00040b98:    d003        ..      BEQ      0x40ba2 ; SystemCoreClockUpdate + 34
        0x00040b9a:    f102000c    ....    ADD      r0,r2,#0xc
        0x00040b9e:    f8500021    P.!.    LDR      r0,[r0,r1,LSL #2]
        0x00040ba2:    f8d31220    .. .    LDR      r1,[r3,#0x220]
        0x00040ba6:    f001010f    ....    AND      r1,r1,#0xf
        0x00040baa:    1c49        I.      ADDS     r1,r1,#1
        0x00040bac:    fbb0f0f1    ....    UDIV     r0,r0,r1
        0x00040bb0:    4904        .I      LDR      r1,[pc,#16] ; [0x40bc4] = 0x7a120
        0x00040bb2:    6010        .`      STR      r0,[r2,#0]
        0x00040bb4:    4408        .D      ADD      r0,r0,r1
        0x00040bb6:    0049        I.      LSLS     r1,r1,#1
        0x00040bb8:    fbb0f0f1    ....    UDIV     r0,r0,r1
        0x00040bbc:    6050        P`      STR      r0,[r2,#4]
        0x00040bbe:    bd10        ..      POP      {r4,pc}
    $d
        0x00040bc0:    20000000    ...     DCD    536870912
        0x00040bc4:    0007a120     ...    DCD    500000
    $t
    i.SystemInit
    SystemInit
        0x00040bc8:    481a        .H      LDR      r0,[pc,#104] ; [0x40c34] = 0xe000ed88
        0x00040bca:    6801        .h      LDR      r1,[r0,#0]
        0x00040bcc:    f4410170    A.p.    ORR      r1,r1,#0xf00000
        0x00040bd0:    6001        .`      STR      r1,[r0,#0]
        0x00040bd2:    4819        .H      LDR      r0,[pc,#100] ; [0x40c38] = 0x4000c000
        0x00040bd4:    6cc1        .l      LDR      r1,[r0,#0x4c]
        0x00040bd6:    f021010f    !...    BIC      r1,r1,#0xf
        0x00040bda:    f0410108    A...    ORR      r1,r1,#8
        0x00040bde:    64c1        .d      STR      r1,[r0,#0x4c]
        0x00040be0:    f04f4080    O..@    MOV      r0,#0x40000000
        0x00040be4:    f8d01298    ....    LDR      r1,[r0,#0x298]
        0x00040be8:    f4412180    A..!    ORR      r1,r1,#0x40000
        0x00040bec:    f8c01298    ....    STR      r1,[r0,#0x298]
        0x00040bf0:    f8d01208    ....    LDR      r1,[r0,#0x208]
        0x00040bf4:    f0410102    A...    ORR      r1,r1,#2
        0x00040bf8:    f8c01208    ....    STR      r1,[r0,#0x208]
        0x00040bfc:    490f        .I      LDR      r1,[pc,#60] ; [0x40c3c] = 0x40041000
        0x00040bfe:    f8d12104    ...!    LDR      r2,[r1,#0x104]
        0x00040c02:    f00232f7    ...2    AND      r2,r2,#0xf7f7f7f7
        0x00040c06:    f8c12104    ...!    STR      r2,[r1,#0x104]
        0x00040c0a:    f8d12108    ...!    LDR      r2,[r1,#0x108]
        0x00040c0e:    f00232f7    ...2    AND      r2,r2,#0xf7f7f7f7
        0x00040c12:    f8c12108    ...!    STR      r2,[r1,#0x108]
        0x00040c16:    f8d01208    ....    LDR      r1,[r0,#0x208]
        0x00040c1a:    f0210102    !...    BIC      r1,r1,#2
        0x00040c1e:    f8c01208    ....    STR      r1,[r0,#0x208]
        0x00040c22:    f04f2040    O.@     MOV      r0,#0x40004000
        0x00040c26:    f8d01140    ..@.    LDR      r1,[r0,#0x140]
        0x00040c2a:    f02101f0    !...    BIC      r1,r1,#0xf0
        0x00040c2e:    f8c01140    ..@.    STR      r1,[r0,#0x140]
        0x00040c32:    4770        pG      BX       lr
    $d
        0x00040c34:    e000ed88    ....    DCD    3758157192
        0x00040c38:    4000c000    ...@    DCD    1073790976
        0x00040c3c:    40041000    ...@    DCD    1074008064
    $t
    i.TIMER1_Init
    TIMER1_Init
        0x00040c40:    b510        ..      PUSH     {r4,lr}
        0x00040c42:    4c0a        .L      LDR      r4,[pc,#40] ; [0x40c6c] = 0x40050100
        0x00040c44:    f44f727a    O.zr    MOV      r2,#0x3e8
        0x00040c48:    f04f6100    O..a    MOV      r1,#0x8000000
        0x00040c4c:    4620         F      MOV      r0,r4
        0x00040c4e:    f000f84b    ..K.    BL       TIMER_Open ; 0x40ce8
        0x00040c52:    6820         h      LDR      r0,[r4,#0]
        0x00040c54:    f0405000    @..P    ORR      r0,r0,#0x20000000
        0x00040c58:    6020         `      STR      r0,[r4,#0]
        0x00040c5a:    2021        !       MOVS     r0,#0x21
        0x00040c5c:    f7fffecc    ....    BL       NVIC_EnableIRQ ; 0x409f8
        0x00040c60:    6820         h      LDR      r0,[r4,#0]
        0x00040c62:    f0404080    @..@    ORR      r0,r0,#0x40000000
        0x00040c66:    6020         `      STR      r0,[r4,#0]
        0x00040c68:    bd10        ..      POP      {r4,pc}
    $d
        0x00040c6a:    0000        ..      DCW    0
        0x00040c6c:    40050100    ...@    DCD    1074069760
    $t
    i.TIMER_GetModuleClock
    TIMER_GetModuleClock
        0x00040c70:    b510        ..      PUSH     {r4,lr}
        0x00040c72:    b088        ..      SUB      sp,sp,#0x20
        0x00040c74:    4604        .F      MOV      r4,r0
        0x00040c76:    2220         "      MOVS     r2,#0x20
        0x00040c78:    4917        .I      LDR      r1,[pc,#92] ; [0x40cd8] = 0x41a20
        0x00040c7a:    4668        hF      MOV      r0,sp
        0x00040c7c:    f7fffb06    ....    BL       __aeabi_memcpy ; 0x4028c
        0x00040c80:    4a16        .J      LDR      r2,[pc,#88] ; [0x40cdc] = 0x40050000
        0x00040c82:    4b17        .K      LDR      r3,[pc,#92] ; [0x40ce0] = 0x40050100
        0x00040c84:    0390        ..      LSLS     r0,r2,#14
        0x00040c86:    4294        .B      CMP      r4,r2
        0x00040c88:    d104        ..      BNE      0x40c94 ; TIMER_GetModuleClock + 36
        0x00040c8a:    f8d00214    ....    LDR      r0,[r0,#0x214]
        0x00040c8e:    f3c02102    ...!    UBFX     r1,r0,#8,#3
        0x00040c92:    e010        ..      B        0x40cb6 ; TIMER_GetModuleClock + 70
        0x00040c94:    429c        .B      CMP      r4,r3
        0x00040c96:    d104        ..      BNE      0x40ca2 ; TIMER_GetModuleClock + 50
        0x00040c98:    f8d00214    ....    LDR      r0,[r0,#0x214]
        0x00040c9c:    f3c03102    ...1    UBFX     r1,r0,#12,#3
        0x00040ca0:    e009        ..      B        0x40cb6 ; TIMER_GetModuleClock + 70
        0x00040ca2:    4910        .I      LDR      r1,[pc,#64] ; [0x40ce4] = 0x40051000
        0x00040ca4:    f8d00214    ....    LDR      r0,[r0,#0x214]
        0x00040ca8:    428c        .B      CMP      r4,r1
        0x00040caa:    d102        ..      BNE      0x40cb2 ; TIMER_GetModuleClock + 66
        0x00040cac:    f3c04102    ...A    UBFX     r1,r0,#16,#3
        0x00040cb0:    e001        ..      B        0x40cb6 ; TIMER_GetModuleClock + 70
        0x00040cb2:    f3c05102    ...Q    UBFX     r1,r0,#20,#3
        0x00040cb6:    2902        .)      CMP      r1,#2
        0x00040cb8:    d003        ..      BEQ      0x40cc2 ; TIMER_GetModuleClock + 82
        0x00040cba:    f85d0021    ].!.    LDR      r0,[sp,r1,LSL #2]
        0x00040cbe:    b008        ..      ADD      sp,sp,#0x20
        0x00040cc0:    bd10        ..      POP      {r4,pc}
        0x00040cc2:    4294        .B      CMP      r4,r2
        0x00040cc4:    d001        ..      BEQ      0x40cca ; TIMER_GetModuleClock + 90
        0x00040cc6:    429c        .B      CMP      r4,r3
        0x00040cc8:    d102        ..      BNE      0x40cd0 ; TIMER_GetModuleClock + 96
        0x00040cca:    f7fffc95    ....    BL       CLK_GetPCLK0Freq ; 0x405f8
        0x00040cce:    e7f6        ..      B        0x40cbe ; TIMER_GetModuleClock + 78
        0x00040cd0:    f7fffcc4    ....    BL       CLK_GetPCLK1Freq ; 0x4065c
        0x00040cd4:    e7f3        ..      B        0x40cbe ; TIMER_GetModuleClock + 78
    $d
        0x00040cd6:    0000        ..      DCW    0
        0x00040cd8:    00041a20     ...    DCD    268832
        0x00040cdc:    40050000    ...@    DCD    1074069504
        0x00040ce0:    40050100    ...@    DCD    1074069760
        0x00040ce4:    40051000    ...@    DCD    1074073600
    $t
    i.TIMER_Open
    TIMER_Open
        0x00040ce8:    b570        p.      PUSH     {r4-r6,lr}
        0x00040cea:    4616        .F      MOV      r6,r2
        0x00040cec:    460d        .F      MOV      r5,r1
        0x00040cee:    4604        .F      MOV      r4,r0
        0x00040cf0:    f7ffffbe    ....    BL       TIMER_GetModuleClock ; 0x40c70
        0x00040cf4:    2300        .#      MOVS     r3,#0
        0x00040cf6:    ebb60f50    ..P.    CMP      r6,r0,LSR #1
        0x00040cfa:    d901        ..      BLS      0x40d00 ; TIMER_Open + 24
        0x00040cfc:    2202        ."      MOVS     r2,#2
        0x00040cfe:    e006        ..      B        0x40d0e ; TIMER_Open + 38
        0x00040d00:    fbb0f2f6    ....    UDIV     r2,r0,r6
        0x00040d04:    0e13        ..      LSRS     r3,r2,#24
        0x00040d06:    d002        ..      BEQ      0x40d0e ; TIMER_Open + 38
        0x00040d08:    1c59        Y.      ADDS     r1,r3,#1
        0x00040d0a:    fbb2f2f1    ....    UDIV     r2,r2,r1
        0x00040d0e:    431d        .C      ORRS     r5,r5,r3
        0x00040d10:    6025        %`      STR      r5,[r4,#0]
        0x00040d12:    6062        b`      STR      r2,[r4,#4]
        0x00040d14:    1c5b        [.      ADDS     r3,r3,#1
        0x00040d16:    435a        ZC      MULS     r2,r3,r2
        0x00040d18:    fbb0f0f2    ....    UDIV     r0,r0,r2
        0x00040d1c:    bd70        p.      POP      {r4-r6,pc}
        0x00040d1e:    0000        ..      MOVS     r0,r0
    i.TMR1_IRQHandler
    TMR1_IRQHandler
        0x00040d20:    480d        .H      LDR      r0,[pc,#52] ; [0x40d58] = 0x40050100
        0x00040d22:    b500        ..      PUSH     {lr}
        0x00040d24:    6881        .h      LDR      r1,[r0,#8]
        0x00040d26:    f3c10100    ....    UBFX     r1,r1,#0,#1
        0x00040d2a:    2900        .)      CMP      r1,#0
        0x00040d2c:    d013        ..      BEQ      0x40d56 ; TMR1_IRQHandler + 54
        0x00040d2e:    2101        .!      MOVS     r1,#1
        0x00040d30:    6081        .`      STR      r1,[r0,#8]
        0x00040d32:    f000fe4f    ..O.    BL       tick_counter ; 0x419d4
        0x00040d36:    4a09        .J      LDR      r2,[pc,#36] ; [0x40d5c] = 0x20000038
        0x00040d38:    6850        Ph      LDR      r0,[r2,#4]
        0x00040d3a:    f44f717a    O.zq    MOV      r1,#0x3e8
        0x00040d3e:    fbb0f3f1    ....    UDIV     r3,r0,r1
        0x00040d42:    fb010013    ....    MLS      r0,r1,r3,r0
        0x00040d46:    b928        (.      CBNZ     r0,0x40d54 ; TMR1_IRQHandler + 52
        0x00040d48:    f1020010    ....    ADD      r0,r2,#0x10
        0x00040d4c:    6801        .h      LDR      r1,[r0,#0]
        0x00040d4e:    f0410101    A...    ORR      r1,r1,#1
        0x00040d52:    6001        .`      STR      r1,[r0,#0]
        0x00040d54:    6850        Ph      LDR      r0,[r2,#4]
        0x00040d56:    bd00        ..      POP      {pc}
    $d
        0x00040d58:    40050100    ...@    DCD    1074069760
        0x00040d5c:    20000038    8..     DCD    536870968
    $t
    i.UART0_IRQHandler
    UART0_IRQHandler
        0x00040d60:    b510        ..      PUSH     {r4,lr}
        0x00040d62:    4c0b        .L      LDR      r4,[pc,#44] ; [0x40d90] = 0x40070000
        0x00040d64:    69e0        .i      LDR      r0,[r4,#0x1c]
        0x00040d66:    f4105f88    ..._    TST      r0,#0x1100
        0x00040d6a:    d102        ..      BNE      0x40d72 ; UART0_IRQHandler + 18
        0x00040d6c:    e004        ..      B        0x40d78 ; UART0_IRQHandler + 24
        0x00040d6e:    f000f961    ..a.    BL       UARTx_Process ; 0x41034
        0x00040d72:    69a1        .i      LDR      r1,[r4,#0x18]
        0x00040d74:    0449        I.      LSLS     r1,r1,#17
        0x00040d76:    d5fa        ..      BPL      0x40d6e ; UART0_IRQHandler + 14
        0x00040d78:    69a1        .i      LDR      r1,[r4,#0x18]
        0x00040d7a:    4620         F      MOV      r0,r4
        0x00040d7c:    f0110f71    ..q.    TST      r1,#0x71
        0x00040d80:    d005        ..      BEQ      0x40d8e ; UART0_IRQHandler + 46
        0x00040d82:    e8bd4010    ...@    POP      {r4,lr}
        0x00040d86:    f44f5110    O..Q    MOV      r1,#0x2400
        0x00040d8a:    f000b89f    ....    B.W      UART_ClearIntFlag ; 0x40ecc
        0x00040d8e:    bd10        ..      POP      {r4,pc}
    $d
        0x00040d90:    40070000    ...@    DCD    1074200576
    $t
    i.UART0_Init
    UART0_Init
        0x00040d94:    b510        ..      PUSH     {r4,lr}
        0x00040d96:    4824        $H      LDR      r0,[pc,#144] ; [0x40e28] = 0x4000010
        0x00040d98:    f7fffe8a    ....    BL       SYS_ResetModule ; 0x40ab0
        0x00040d9c:    4c23        #L      LDR      r4,[pc,#140] ; [0x40e2c] = 0x40070000
        0x00040d9e:    f44f31e1    O..1    MOV      r1,#0x1c200
        0x00040da2:    4620         F      MOV      r0,r4
        0x00040da4:    f000f8b0    ....    BL       UART_Open ; 0x40f08
        0x00040da8:    2114        .!      MOVS     r1,#0x14
        0x00040daa:    4620         F      MOV      r0,r4
        0x00040dac:    f000f938    ..8.    BL       UART_SetTimeoutCnt ; 0x41020
        0x00040db0:    68a0        .h      LDR      r0,[r4,#8]
        0x00040db2:    f0200010     ...    BIC      r0,r0,#0x10
        0x00040db6:    60a0        .`      STR      r0,[r4,#8]
        0x00040db8:    68a0        .h      LDR      r0,[r4,#8]
        0x00040dba:    f0400020    @. .    ORR      r0,r0,#0x20
        0x00040dbe:    60a0        .`      STR      r0,[r4,#8]
        0x00040dc0:    6860        `h      LDR      r0,[r4,#4]
        0x00040dc2:    f6400111    @...    MOV      r1,#0x811
        0x00040dc6:    4308        .C      ORRS     r0,r0,r1
        0x00040dc8:    6060        ``      STR      r0,[r4,#4]
        0x00040dca:    2024        $       MOVS     r0,#0x24
        0x00040dcc:    f7fffe14    ....    BL       NVIC_EnableIRQ ; 0x409f8
        0x00040dd0:    f7fffbec    ....    BL       CLK_GetCPUFreq ; 0x405ac
        0x00040dd4:    4601        .F      MOV      r1,r0
        0x00040dd6:    a016        ..      ADR      r0,{pc}+0x5a ; 0x40e30
        0x00040dd8:    f000f96a    ..j.    BL       __0printf$8 ; 0x410b0
        0x00040ddc:    f7fffbee    ....    BL       CLK_GetHCLKFreq ; 0x405bc
        0x00040de0:    4601        .F      MOV      r1,r0
        0x00040de2:    a01a        ..      ADR      r0,{pc}+0x6a ; 0x40e4c
        0x00040de4:    f000f964    ..d.    BL       __0printf$8 ; 0x410b0
        0x00040de8:    f7fffbf0    ....    BL       CLK_GetHXTFreq ; 0x405cc
        0x00040dec:    4601        .F      MOV      r1,r0
        0x00040dee:    a01d        ..      ADR      r0,{pc}+0x76 ; 0x40e64
        0x00040df0:    f000f95e    ..^.    BL       __0printf$8 ; 0x410b0
        0x00040df4:    f7fffbf4    ....    BL       CLK_GetLXTFreq ; 0x405e0
        0x00040df8:    4601        .F      MOV      r1,r0
        0x00040dfa:    a020         .      ADR      r0,{pc}+0x82 ; 0x40e7c
        0x00040dfc:    f000f958    ..X.    BL       __0printf$8 ; 0x410b0
        0x00040e00:    f7fffbfa    ....    BL       CLK_GetPCLK0Freq ; 0x405f8
        0x00040e04:    4601        .F      MOV      r1,r0
        0x00040e06:    a023        #.      ADR      r0,{pc}+0x8e ; 0x40e94
        0x00040e08:    f000f952    ..R.    BL       __0printf$8 ; 0x410b0
        0x00040e0c:    f7fffc26    ..&.    BL       CLK_GetPCLK1Freq ; 0x4065c
        0x00040e10:    4601        .F      MOV      r1,r0
        0x00040e12:    a027        '.      ADR      r0,{pc}+0x9e ; 0x40eb0
        0x00040e14:    f000f94c    ..L.    BL       __0printf$8 ; 0x410b0
        0x00040e18:    f7fffbd0    ....    BL       CLK_GetHCLKFreq ; 0x405bc
        0x00040e1c:    4601        .F      MOV      r1,r0
        0x00040e1e:    e8bd4010    ...@    POP      {r4,lr}
        0x00040e22:    a00a        ..      ADR      r0,{pc}+0x2a ; 0x40e4c
        0x00040e24:    f000b944    ..D.    B.W      __0printf$8 ; 0x410b0
    $d
        0x00040e28:    04000010    ....    DCD    67108880
        0x00040e2c:    40070000    ...@    DCD    1074200576
        0x00040e30:    4c430a0d    ..CL    DCD    1279461901
        0x00040e34:    65475f4b    K_Ge    DCD    1699176267
        0x00040e38:    55504374    tCPU    DCD    1431323508
        0x00040e3c:    71657246    Freq    DCD    1902473798
        0x00040e40:    25203a20     : %    DCD    622869024
        0x00040e44:    0a0d6438    8d..    DCD    168649784
        0x00040e48:    00000000    ....    DCD    0
        0x00040e4c:    5f4b4c43    CLK_    DCD    1598770243
        0x00040e50:    48746547    GetH    DCD    1215587655
        0x00040e54:    464b4c43    CLKF    DCD    1179339843
        0x00040e58:    20716572    req     DCD    544302450
        0x00040e5c:    3825203a    : %8    DCD    941957178
        0x00040e60:    000a0d64    d...    DCD    658788
        0x00040e64:    5f4b4c43    CLK_    DCD    1598770243
        0x00040e68:    48746547    GetH    DCD    1215587655
        0x00040e6c:    72465458    XTFr    DCD    1917211736
        0x00040e70:    3a207165    eq :    DCD    975204709
        0x00040e74:    64382520     %8d    DCD    1681401120
        0x00040e78:    00000a0d    ....    DCD    2573
        0x00040e7c:    5f4b4c43    CLK_    DCD    1598770243
        0x00040e80:    4c746547    GetL    DCD    1282696519
        0x00040e84:    72465458    XTFr    DCD    1917211736
        0x00040e88:    3a207165    eq :    DCD    975204709
        0x00040e8c:    64382520     %8d    DCD    1681401120
        0x00040e90:    00000a0d    ....    DCD    2573
        0x00040e94:    5f4b4c43    CLK_    DCD    1598770243
        0x00040e98:    50746547    GetP    DCD    1349805383
        0x00040e9c:    304b4c43    CLK0    DCD    810241091
        0x00040ea0:    71657246    Freq    DCD    1902473798
        0x00040ea4:    25203a20     : %    DCD    622869024
        0x00040ea8:    0a0d6438    8d..    DCD    168649784
        0x00040eac:    00000000    ....    DCD    0
        0x00040eb0:    5f4b4c43    CLK_    DCD    1598770243
        0x00040eb4:    50746547    GetP    DCD    1349805383
        0x00040eb8:    314b4c43    CLK1    DCD    827018307
        0x00040ebc:    71657246    Freq    DCD    1902473798
        0x00040ec0:    25203a20     : %    DCD    622869024
        0x00040ec4:    0a0d6438    8d..    DCD    168649784
        0x00040ec8:    00000000    ....    DCD    0
    $t
    i.UART_ClearIntFlag
    UART_ClearIntFlag
        0x00040ecc:    054a        J.      LSLS     r2,r1,#21
        0x00040ece:    d503        ..      BPL      0x40ed8 ; UART_ClearIntFlag + 12
        0x00040ed0:    2270        p"      MOVS     r2,#0x70
        0x00040ed2:    6182        .a      STR      r2,[r0,#0x18]
        0x00040ed4:    2208        ."      MOVS     r2,#8
        0x00040ed6:    6182        .a      STR      r2,[r0,#0x18]
        0x00040ed8:    050a        ..      LSLS     r2,r1,#20
        0x00040eda:    d503        ..      BPL      0x40ee4 ; UART_ClearIntFlag + 24
        0x00040edc:    6942        Bi      LDR      r2,[r0,#0x14]
        0x00040ede:    f0420201    B...    ORR      r2,r2,#1
        0x00040ee2:    6142        Ba      STR      r2,[r0,#0x14]
        0x00040ee4:    048a        ..      LSLS     r2,r1,#18
        0x00040ee6:    d501        ..      BPL      0x40eec ; UART_ClearIntFlag + 32
        0x00040ee8:    4a06        .J      LDR      r2,[pc,#24] ; [0x40f04] = 0x1000001
        0x00040eea:    6182        .a      STR      r2,[r0,#0x18]
        0x00040eec:    044a        J.      LSLS     r2,r1,#17
        0x00040eee:    d501        ..      BPL      0x40ef4 ; UART_ClearIntFlag + 40
        0x00040ef0:    221f        ."      MOVS     r2,#0x1f
        0x00040ef2:    6442        Bd      STR      r2,[r0,#0x44]
        0x00040ef4:    0409        ..      LSLS     r1,r1,#16
        0x00040ef6:    d504        ..      BPL      0x40f02 ; UART_ClearIntFlag + 54
        0x00040ef8:    2180        .!      MOVS     r1,#0x80
        0x00040efa:    61c1        .a      STR      r1,[r0,#0x1c]
        0x00040efc:    f240310f    @..1    MOV      r1,#0x30f
        0x00040f00:    6381        .c      STR      r1,[r0,#0x38]
        0x00040f02:    4770        pG      BX       lr
    $d
        0x00040f04:    01000001    ....    DCD    16777217
    $t
    i.UART_Open
    UART_Open
        0x00040f08:    e92d41ff    -..A    PUSH     {r0-r8,lr}
        0x00040f0c:    4604        .F      MOV      r4,r0
        0x00040f0e:    483c        <H      LDR      r0,[pc,#240] ; [0x41000] = 0x419f0
        0x00040f10:    460f        .F      MOV      r7,r1
        0x00040f12:    2500        .%      MOVS     r5,#0
        0x00040f14:    c80f        ..      LDM      r0,{r0-r3}
        0x00040f16:    e88d000f    ....    STM      sp,{r0-r3}
        0x00040f1a:    493a        :I      LDR      r1,[pc,#232] ; [0x41004] = 0x40070000
        0x00040f1c:    462e        .F      MOV      r6,r5
        0x00040f1e:    f04f4080    O..@    MOV      r0,#0x40000000
        0x00040f22:    428c        .B      CMP      r4,r1
        0x00040f24:    d106        ..      BNE      0x40f34 ; UART_Open + 44
        0x00040f26:    f8d01214    ....    LDR      r1,[r0,#0x214]
        0x00040f2a:    f8d00220    .. .    LDR      r0,[r0,#0x220]
        0x00040f2e:    f3c16501    ...e    UBFX     r5,r1,#24,#2
        0x00040f32:    e02a        *.      B        0x40f8a ; UART_Open + 130
        0x00040f34:    4934        4I      LDR      r1,[pc,#208] ; [0x41008] = 0x40071000
        0x00040f36:    428c        .B      CMP      r4,r1
        0x00040f38:    d106        ..      BNE      0x40f48 ; UART_Open + 64
        0x00040f3a:    f8d01214    ....    LDR      r1,[r0,#0x214]
        0x00040f3e:    f8d00220    .. .    LDR      r0,[r0,#0x220]
        0x00040f42:    f3c16581    ...e    UBFX     r5,r1,#26,#2
        0x00040f46:    e02b        +.      B        0x40fa0 ; UART_Open + 152
        0x00040f48:    4930        0I      LDR      r1,[pc,#192] ; [0x4100c] = 0x40072000
        0x00040f4a:    428c        .B      CMP      r4,r1
        0x00040f4c:    d108        ..      BNE      0x40f60 ; UART_Open + 88
        0x00040f4e:    f8d0121c    ....    LDR      r1,[r0,#0x21c]
        0x00040f52:    f8d00230    ..0.    LDR      r0,[r0,#0x230]
        0x00040f56:    f3c16501    ...e    UBFX     r5,r1,#24,#2
        0x00040f5a:    f000060f    ....    AND      r6,r0,#0xf
        0x00040f5e:    e021        !.      B        0x40fa4 ; UART_Open + 156
        0x00040f60:    492b        +I      LDR      r1,[pc,#172] ; [0x41010] = 0x40073000
        0x00040f62:    428c        .B      CMP      r4,r1
        0x00040f64:    d108        ..      BNE      0x40f78 ; UART_Open + 112
        0x00040f66:    f8d0121c    ....    LDR      r1,[r0,#0x21c]
        0x00040f6a:    f8d00230    ..0.    LDR      r0,[r0,#0x230]
        0x00040f6e:    f3c16581    ...e    UBFX     r5,r1,#26,#2
        0x00040f72:    f3c01603    ....    UBFX     r6,r0,#4,#4
        0x00040f76:    e015        ..      B        0x40fa4 ; UART_Open + 156
        0x00040f78:    4926        &I      LDR      r1,[pc,#152] ; [0x41014] = 0x40074000
        0x00040f7a:    428c        .B      CMP      r4,r1
        0x00040f7c:    d108        ..      BNE      0x40f90 ; UART_Open + 136
        0x00040f7e:    f8d0121c    ....    LDR      r1,[r0,#0x21c]
        0x00040f82:    f8d00230    ..0.    LDR      r0,[r0,#0x230]
        0x00040f86:    f3c17501    ...u    UBFX     r5,r1,#28,#2
        0x00040f8a:    f3c02603    ...&    UBFX     r6,r0,#8,#4
        0x00040f8e:    e009        ..      B        0x40fa4 ; UART_Open + 156
        0x00040f90:    4921        !I      LDR      r1,[pc,#132] ; [0x41018] = 0x40075000
        0x00040f92:    428c        .B      CMP      r4,r1
        0x00040f94:    d106        ..      BNE      0x40fa4 ; UART_Open + 156
        0x00040f96:    f8d0121c    ....    LDR      r1,[r0,#0x21c]
        0x00040f9a:    f8d00230    ..0.    LDR      r0,[r0,#0x230]
        0x00040f9e:    0f8d        ..      LSRS     r5,r1,#30
        0x00040fa0:    f3c03603    ...6    UBFX     r6,r0,#12,#4
        0x00040fa4:    2000        .       MOVS     r0,#0
        0x00040fa6:    6320         c      STR      r0,[r4,#0x30]
        0x00040fa8:    2003        .       MOVS     r0,#3
        0x00040faa:    60e0        .`      STR      r0,[r4,#0xc]
        0x00040fac:    68a0        .h      LDR      r0,[r4,#8]
        0x00040fae:    491b        .I      LDR      r1,[pc,#108] ; [0x4101c] = 0xfff0ff0f
        0x00040fb0:    4008        .@      ANDS     r0,r0,r1
        0x00040fb2:    60a0        .`      STR      r0,[r4,#8]
        0x00040fb4:    46e8        .F      MOV      r8,sp
        0x00040fb6:    2d01        .-      CMP      r5,#1
        0x00040fb8:    d102        ..      BNE      0x40fc0 ; UART_Open + 184
        0x00040fba:    f7fffb83    ....    BL       CLK_GetPLLClockFreq ; 0x406c4
        0x00040fbe:    9001        ..      STR      r0,[sp,#4]
        0x00040fc0:    2f00        ./      CMP      r7,#0
        0x00040fc2:    d01a        ..      BEQ      0x40ffa ; UART_Open + 242
        0x00040fc4:    f8581025    X.%.    LDR      r1,[r8,r5,LSL #2]
        0x00040fc8:    1c76        v.      ADDS     r6,r6,#1
        0x00040fca:    fbb1f0f6    ....    UDIV     r0,r1,r6
        0x00040fce:    eb000057    ..W.    ADD      r0,r0,r7,LSR #1
        0x00040fd2:    fbb0f0f7    ....    UDIV     r0,r0,r7
        0x00040fd6:    1e80        ..      SUBS     r0,r0,#2
        0x00040fd8:    f5b03f80    ...?    CMP      r0,#0x10000
        0x00040fdc:    d30a        ..      BCC      0x40ff4 ; UART_Open + 236
        0x00040fde:    fbb1f0f6    ....    UDIV     r0,r1,r6
        0x00040fe2:    eb0000c7    ....    ADD      r0,r0,r7,LSL #3
        0x00040fe6:    fbb0f0f7    ....    UDIV     r0,r0,r7
        0x00040fea:    f06f0101    o...    MVN      r1,#1
        0x00040fee:    eb011010    ....    ADD      r0,r1,r0,LSR #4
        0x00040ff2:    e001        ..      B        0x40ff8 ; UART_Open + 240
        0x00040ff4:    f0405040    @.@P    ORR      r0,r0,#0x30000000
        0x00040ff8:    6260        `b      STR      r0,[r4,#0x24]
        0x00040ffa:    e8bd81ff    ....    POP      {r0-r8,pc}
    $d
        0x00040ffe:    0000        ..      DCW    0
        0x00041000:    000419f0    ....    DCD    268784
        0x00041004:    40070000    ...@    DCD    1074200576
        0x00041008:    40071000    ...@    DCD    1074204672
        0x0004100c:    40072000    . .@    DCD    1074208768
        0x00041010:    40073000    .0.@    DCD    1074212864
        0x00041014:    40074000    .@.@    DCD    1074216960
        0x00041018:    40075000    .P.@    DCD    1074221056
        0x0004101c:    fff0ff0f    ....    DCD    4293984015
    $t
    i.UART_SetTimeoutCnt
    UART_SetTimeoutCnt
        0x00041020:    6a02        .j      LDR      r2,[r0,#0x20]
        0x00041022:    f02202ff    "...    BIC      r2,r2,#0xff
        0x00041026:    430a        .C      ORRS     r2,r2,r1
        0x00041028:    6202        .b      STR      r2,[r0,#0x20]
        0x0004102a:    6841        Ah      LDR      r1,[r0,#4]
        0x0004102c:    f4416100    A..a    ORR      r1,r1,#0x800
        0x00041030:    6041        A`      STR      r1,[r0,#4]
        0x00041032:    4770        pG      BX       lr
    i.UARTx_Process
    UARTx_Process
        0x00041034:    b510        ..      PUSH     {r4,lr}
        0x00041036:    4813        .H      LDR      r0,[pc,#76] ; [0x41084] = 0x40070000
        0x00041038:    6800        .h      LDR      r0,[r0,#0]
        0x0004103a:    b2c4        ..      UXTB     r4,r0
        0x0004103c:    2c7f        .,      CMP      r4,#0x7f
        0x0004103e:    d904        ..      BLS      0x4104a ; UARTx_Process + 22
        0x00041040:    e8bd4010    ...@    POP      {r4,lr}
        0x00041044:    a010        ..      ADR      r0,{pc}+0x44 ; 0x41088
        0x00041046:    f000b833    ..3.    B.W      __0printf$8 ; 0x410b0
        0x0004104a:    4621        !F      MOV      r1,r4
        0x0004104c:    a013        ..      ADR      r0,{pc}+0x50 ; 0x4109c
        0x0004104e:    f000f82f    ../.    BL       __0printf$8 ; 0x410b0
        0x00041052:    2c5a        Z,      CMP      r4,#0x5a
        0x00041054:    d009        ..      BEQ      0x4106a ; UARTx_Process + 54
        0x00041056:    dc04        ..      BGT      0x41062 ; UARTx_Process + 46
        0x00041058:    2c31        1,      CMP      r4,#0x31
        0x0004105a:    d00c        ..      BEQ      0x41076 ; UARTx_Process + 66
        0x0004105c:    2c58        X,      CMP      r4,#0x58
        0x0004105e:    d10f        ..      BNE      0x41080 ; UARTx_Process + 76
        0x00041060:    e003        ..      B        0x4106a ; UARTx_Process + 54
        0x00041062:    2c78        x,      CMP      r4,#0x78
        0x00041064:    d001        ..      BEQ      0x4106a ; UARTx_Process + 54
        0x00041066:    2c7a        z,      CMP      r4,#0x7a
        0x00041068:    d10a        ..      BNE      0x41080 ; UARTx_Process + 76
        0x0004106a:    f7fffd2d    ..-.    BL       SYS_UnlockReg ; 0x40ac8
        0x0004106e:    e8bd4010    ...@    POP      {r4,lr}
        0x00041072:    f7ffbd16    ....    B.W      SYS_ResetChip ; 0x40aa2
        0x00041076:    480d        .H      LDR      r0,[pc,#52] ; [0x410ac] = 0x20000048
        0x00041078:    6801        .h      LDR      r1,[r0,#0]
        0x0004107a:    f0410102    A...    ORR      r1,r1,#2
        0x0004107e:    6001        .`      STR      r1,[r0,#0]
        0x00041080:    bd10        ..      POP      {r4,pc}
    $d
        0x00041082:    0000        ..      DCW    0
        0x00041084:    40070000    ...@    DCD    1074200576
        0x00041088:    61766e69    inva    DCD    1635151465
        0x0004108c:    2064696c    lid     DCD    543451500
        0x00041090:    6d6d6f63    comm    DCD    1835888483
        0x00041094:    0d646e61    and.    DCD    224685665
        0x00041098:    0000000a    ....    DCD    10
        0x0004109c:    73657270    pres    DCD    1936028272
        0x000410a0:    203a2073    s :     DCD    540680307
        0x000410a4:    0a0d6325    %c..    DCD    168649509
        0x000410a8:    00000000    ....    DCD    0
        0x000410ac:    20000048    H..     DCD    536870984
    $t
    i.__0printf$8
    __0printf$8
    __1printf$8
    __2printf
        0x000410b0:    b40f        ..      PUSH     {r0-r3}
        0x000410b2:    4b05        .K      LDR      r3,[pc,#20] ; [0x410c8] = 0x4186d
        0x000410b4:    b510        ..      PUSH     {r4,lr}
        0x000410b6:    a903        ..      ADD      r1,sp,#0xc
        0x000410b8:    4a04        .J      LDR      r2,[pc,#16] ; [0x410cc] = 0x2000002c
        0x000410ba:    9802        ..      LDR      r0,[sp,#8]
        0x000410bc:    f000f818    ....    BL       _printf_core ; 0x410f0
        0x000410c0:    bc10        ..      POP      {r4}
        0x000410c2:    f85dfb14    ]...    LDR      pc,[sp],#0x14
    $d
        0x000410c6:    0000        ..      DCW    0
        0x000410c8:    0004186d    m...    DCD    268397
        0x000410cc:    2000002c    ,..     DCD    536870956
    $t
    i.__scatterload_copy
    __scatterload_copy
        0x000410d0:    e002        ..      B        0x410d8 ; __scatterload_copy + 8
        0x000410d2:    c808        ..      LDM      r0!,{r3}
        0x000410d4:    1f12        ..      SUBS     r2,r2,#4
        0x000410d6:    c108        ..      STM      r1!,{r3}
        0x000410d8:    2a00        .*      CMP      r2,#0
        0x000410da:    d1fa        ..      BNE      0x410d2 ; __scatterload_copy + 2
        0x000410dc:    4770        pG      BX       lr
    i.__scatterload_null
    __scatterload_null
        0x000410de:    4770        pG      BX       lr
    i.__scatterload_zeroinit
    __scatterload_zeroinit
        0x000410e0:    2000        .       MOVS     r0,#0
        0x000410e2:    e001        ..      B        0x410e8 ; __scatterload_zeroinit + 8
        0x000410e4:    c101        ..      STM      r1!,{r0}
        0x000410e6:    1f12        ..      SUBS     r2,r2,#4
        0x000410e8:    2a00        .*      CMP      r2,#0
        0x000410ea:    d1fb        ..      BNE      0x410e4 ; __scatterload_zeroinit + 4
        0x000410ec:    4770        pG      BX       lr
        0x000410ee:    0000        ..      MOVS     r0,r0
    i._printf_core
    _printf_core
        0x000410f0:    e92d4fff    -..O    PUSH     {r0-r11,lr}
        0x000410f4:    b08d        ..      SUB      sp,sp,#0x34
        0x000410f6:    460f        .F      MOV      r7,r1
        0x000410f8:    4605        .F      MOV      r5,r0
        0x000410fa:    2600        .&      MOVS     r6,#0
        0x000410fc:    e006        ..      B        0x4110c ; _printf_core + 28
        0x000410fe:    2825        %(      CMP      r0,#0x25
        0x00041100:    d00b        ..      BEQ      0x4111a ; _printf_core + 42
        0x00041102:    e9dd120f    ....    LDRD     r1,r2,[sp,#0x3c]
        0x00041106:    4790        .G      BLX      r2
        0x00041108:    1c6d        m.      ADDS     r5,r5,#1
        0x0004110a:    1c76        v.      ADDS     r6,r6,#1
        0x0004110c:    7828        (x      LDRB     r0,[r5,#0]
        0x0004110e:    2800        .(      CMP      r0,#0
        0x00041110:    d1f5        ..      BNE      0x410fe ; _printf_core + 14
        0x00041112:    b011        ..      ADD      sp,sp,#0x44
        0x00041114:    4630        0F      MOV      r0,r6
        0x00041116:    e8bd8ff0    ....    POP      {r4-r11,pc}
        0x0004111a:    2400        .$      MOVS     r4,#0
        0x0004111c:    46a2        .F      MOV      r10,r4
        0x0004111e:    46a1        .F      MOV      r9,r4
        0x00041120:    2201        ."      MOVS     r2,#1
        0x00041122:    49ec        .I      LDR      r1,[pc,#944] ; [0x414d4] = 0x12809
        0x00041124:    e000        ..      B        0x41128 ; _printf_core + 56
        0x00041126:    4304        .C      ORRS     r4,r4,r0
        0x00041128:    f8153f01    ...?    LDRB     r3,[r5,#1]!
        0x0004112c:    3b20         ;      SUBS     r3,r3,#0x20
        0x0004112e:    fa02f003    ....    LSL      r0,r2,r3
        0x00041132:    4208        .B      TST      r0,r1
        0x00041134:    d1f7        ..      BNE      0x41126 ; _printf_core + 54
        0x00041136:    7828        (x      LDRB     r0,[r5,#0]
        0x00041138:    282a        *(      CMP      r0,#0x2a
        0x0004113a:    d010        ..      BEQ      0x4115e ; _printf_core + 110
        0x0004113c:    f06f022f    o./.    MVN      r2,#0x2f
        0x00041140:    7828        (x      LDRB     r0,[r5,#0]
        0x00041142:    f1a00130    ..0.    SUB      r1,r0,#0x30
        0x00041146:    2909        .)      CMP      r1,#9
        0x00041148:    d814        ..      BHI      0x41174 ; _printf_core + 132
        0x0004114a:    eb0a018a    ....    ADD      r1,r10,r10,LSL #2
        0x0004114e:    eb020141    ..A.    ADD      r1,r2,r1,LSL #1
        0x00041152:    f0440402    D...    ORR      r4,r4,#2
        0x00041156:    eb000a01    ....    ADD      r10,r0,r1
        0x0004115a:    1c6d        m.      ADDS     r5,r5,#1
        0x0004115c:    e7f0        ..      B        0x41140 ; _printf_core + 80
        0x0004115e:    cf01        ..      LDM      r7!,{r0}
        0x00041160:    ea5f0a00    _...    MOVS     r10,r0
        0x00041164:    d503        ..      BPL      0x4116e ; _printf_core + 126
        0x00041166:    f4445400    D..T    ORR      r4,r4,#0x2000
        0x0004116a:    f1ca0a00    ....    RSB      r10,r10,#0
        0x0004116e:    f0440402    D...    ORR      r4,r4,#2
        0x00041172:    1c6d        m.      ADDS     r5,r5,#1
        0x00041174:    7828        (x      LDRB     r0,[r5,#0]
        0x00041176:    282e        .(      CMP      r0,#0x2e
        0x00041178:    d117        ..      BNE      0x411aa ; _printf_core + 186
        0x0004117a:    f8150f01    ....    LDRB     r0,[r5,#1]!
        0x0004117e:    f0440404    D...    ORR      r4,r4,#4
        0x00041182:    282a        *(      CMP      r0,#0x2a
        0x00041184:    d00e        ..      BEQ      0x411a4 ; _printf_core + 180
        0x00041186:    f06f022f    o./.    MVN      r2,#0x2f
        0x0004118a:    7828        (x      LDRB     r0,[r5,#0]
        0x0004118c:    f1a00130    ..0.    SUB      r1,r0,#0x30
        0x00041190:    2909        .)      CMP      r1,#9
        0x00041192:    d80a        ..      BHI      0x411aa ; _printf_core + 186
        0x00041194:    eb090189    ....    ADD      r1,r9,r9,LSL #2
        0x00041198:    eb020141    ..A.    ADD      r1,r2,r1,LSL #1
        0x0004119c:    eb000901    ....    ADD      r9,r0,r1
        0x000411a0:    1c6d        m.      ADDS     r5,r5,#1
        0x000411a2:    e7f2        ..      B        0x4118a ; _printf_core + 154
        0x000411a4:    f8579b04    W...    LDR      r9,[r7],#4
        0x000411a8:    1c6d        m.      ADDS     r5,r5,#1
        0x000411aa:    7828        (x      LDRB     r0,[r5,#0]
        0x000411ac:    286c        l(      CMP      r0,#0x6c
        0x000411ae:    d00f        ..      BEQ      0x411d0 ; _printf_core + 224
        0x000411b0:    dc06        ..      BGT      0x411c0 ; _printf_core + 208
        0x000411b2:    284c        L(      CMP      r0,#0x4c
        0x000411b4:    d017        ..      BEQ      0x411e6 ; _printf_core + 246
        0x000411b6:    2868        h(      CMP      r0,#0x68
        0x000411b8:    d00d        ..      BEQ      0x411d6 ; _printf_core + 230
        0x000411ba:    286a        j(      CMP      r0,#0x6a
        0x000411bc:    d114        ..      BNE      0x411e8 ; _printf_core + 248
        0x000411be:    e004        ..      B        0x411ca ; _printf_core + 218
        0x000411c0:    2874        t(      CMP      r0,#0x74
        0x000411c2:    d010        ..      BEQ      0x411e6 ; _printf_core + 246
        0x000411c4:    287a        z(      CMP      r0,#0x7a
        0x000411c6:    d10f        ..      BNE      0x411e8 ; _printf_core + 248
        0x000411c8:    e00d        ..      B        0x411e6 ; _printf_core + 246
        0x000411ca:    f4441400    D...    ORR      r4,r4,#0x200000
        0x000411ce:    e00a        ..      B        0x411e6 ; _printf_core + 246
        0x000411d0:    f4441480    D...    ORR      r4,r4,#0x100000
        0x000411d4:    e001        ..      B        0x411da ; _printf_core + 234
        0x000411d6:    f4441440    D.@.    ORR      r4,r4,#0x300000
        0x000411da:    7869        ix      LDRB     r1,[r5,#1]
        0x000411dc:    4281        .B      CMP      r1,r0
        0x000411de:    d102        ..      BNE      0x411e6 ; _printf_core + 246
        0x000411e0:    f5041480    ....    ADD      r4,r4,#0x100000
        0x000411e4:    1c6d        m.      ADDS     r5,r5,#1
        0x000411e6:    1c6d        m.      ADDS     r5,r5,#1
        0x000411e8:    782a        *x      LDRB     r2,[r5,#0]
        0x000411ea:    2a6e        n*      CMP      r2,#0x6e
        0x000411ec:    d01f        ..      BEQ      0x4122e ; _printf_core + 318
        0x000411ee:    dc0c        ..      BGT      0x4120a ; _printf_core + 282
        0x000411f0:    2a63        c*      CMP      r2,#0x63
        0x000411f2:    d031        1.      BEQ      0x41258 ; _printf_core + 360
        0x000411f4:    dc04        ..      BGT      0x41200 ; _printf_core + 272
        0x000411f6:    2a00        .*      CMP      r2,#0
        0x000411f8:    d08b        ..      BEQ      0x41112 ; _printf_core + 34
        0x000411fa:    2a58        X*      CMP      r2,#0x58
        0x000411fc:    d111        ..      BNE      0x41222 ; _printf_core + 306
        0x000411fe:    e0a3        ..      B        0x41348 ; _printf_core + 600
        0x00041200:    2a64        d*      CMP      r2,#0x64
        0x00041202:    d068        h.      BEQ      0x412d6 ; _printf_core + 486
        0x00041204:    2a69        i*      CMP      r2,#0x69
        0x00041206:    d10c        ..      BNE      0x41222 ; _printf_core + 306
        0x00041208:    e065        e.      B        0x412d6 ; _printf_core + 486
        0x0004120a:    2a73        s*      CMP      r2,#0x73
        0x0004120c:    d02e        ..      BEQ      0x4126c ; _printf_core + 380
        0x0004120e:    dc04        ..      BGT      0x4121a ; _printf_core + 298
        0x00041210:    2a6f        o*      CMP      r2,#0x6f
        0x00041212:    d073        s.      BEQ      0x412fc ; _printf_core + 524
        0x00041214:    2a70        p*      CMP      r2,#0x70
        0x00041216:    d104        ..      BNE      0x41222 ; _printf_core + 306
        0x00041218:    e09b        ..      B        0x41352 ; _printf_core + 610
        0x0004121a:    2a75        u*      CMP      r2,#0x75
        0x0004121c:    d06f        o.      BEQ      0x412fe ; _printf_core + 526
        0x0004121e:    2a78        x*      CMP      r2,#0x78
        0x00041220:    d06e        n.      BEQ      0x41300 ; _printf_core + 528
        0x00041222:    4610        .F      MOV      r0,r2
        0x00041224:    e9dd120f    ....    LDRD     r1,r2,[sp,#0x3c]
        0x00041228:    4790        .G      BLX      r2
        0x0004122a:    1c76        v.      ADDS     r6,r6,#1
        0x0004122c:    e150        P.      B        0x414d0 ; _printf_core + 992
        0x0004122e:    f3c45002    ...P    UBFX     r0,r4,#20,#3
        0x00041232:    2802        .(      CMP      r0,#2
        0x00041234:    d006        ..      BEQ      0x41244 ; _printf_core + 340
        0x00041236:    2803        .(      CMP      r0,#3
        0x00041238:    d009        ..      BEQ      0x4124e ; _printf_core + 350
        0x0004123a:    2804        .(      CMP      r0,#4
        0x0004123c:    cf01        ..      LDM      r7!,{r0}
        0x0004123e:    d009        ..      BEQ      0x41254 ; _printf_core + 356
        0x00041240:    6006        .`      STR      r6,[r0,#0]
        0x00041242:    e145        E.      B        0x414d0 ; _printf_core + 992
        0x00041244:    cf01        ..      LDM      r7!,{r0}
        0x00041246:    17f1        ..      ASRS     r1,r6,#31
        0x00041248:    e9c06100    ...a    STRD     r6,r1,[r0,#0]
        0x0004124c:    e140        @.      B        0x414d0 ; _printf_core + 992
        0x0004124e:    cf01        ..      LDM      r7!,{r0}
        0x00041250:    8006        ..      STRH     r6,[r0,#0]
        0x00041252:    e13d        =.      B        0x414d0 ; _printf_core + 992
        0x00041254:    7006        .p      STRB     r6,[r0,#0]
        0x00041256:    e13b        ;.      B        0x414d0 ; _printf_core + 992
        0x00041258:    f8170b04    ....    LDRB     r0,[r7],#4
        0x0004125c:    f88d0000    ....    STRB     r0,[sp,#0]
        0x00041260:    2000        .       MOVS     r0,#0
        0x00041262:    f88d0001    ....    STRB     r0,[sp,#1]
        0x00041266:    46eb        .F      MOV      r11,sp
        0x00041268:    2001        .       MOVS     r0,#1
        0x0004126a:    e003        ..      B        0x41274 ; _printf_core + 388
        0x0004126c:    f857bb04    W...    LDR      r11,[r7],#4
        0x00041270:    f04f30ff    O..0    MOV      r0,#0xffffffff
        0x00041274:    0761        a.      LSLS     r1,r4,#29
        0x00041276:    f04f0100    O...    MOV      r1,#0
        0x0004127a:    d402        ..      BMI      0x41282 ; _printf_core + 402
        0x0004127c:    e00d        ..      B        0x4129a ; _printf_core + 426
        0x0004127e:    f1080101    ....    ADD      r1,r8,#1
        0x00041282:    4688        .F      MOV      r8,r1
        0x00041284:    4549        IE      CMP      r1,r9
        0x00041286:    da0f        ..      BGE      0x412a8 ; _printf_core + 440
        0x00041288:    4580        .E      CMP      r8,r0
        0x0004128a:    dbf8        ..      BLT      0x4127e ; _printf_core + 398
        0x0004128c:    f81b1008    ....    LDRB     r1,[r11,r8]
        0x00041290:    2900        .)      CMP      r1,#0
        0x00041292:    d1f4        ..      BNE      0x4127e ; _printf_core + 398
        0x00041294:    e008        ..      B        0x412a8 ; _printf_core + 440
        0x00041296:    f1080101    ....    ADD      r1,r8,#1
        0x0004129a:    4688        .F      MOV      r8,r1
        0x0004129c:    4281        .B      CMP      r1,r0
        0x0004129e:    dbfa        ..      BLT      0x41296 ; _printf_core + 422
        0x000412a0:    f81b1008    ....    LDRB     r1,[r11,r8]
        0x000412a4:    2900        .)      CMP      r1,#0
        0x000412a6:    d1f6        ..      BNE      0x41296 ; _printf_core + 422
        0x000412a8:    e9dd230f    ...#    LDRD     r2,r3,[sp,#0x3c]
        0x000412ac:    ebaa0008    ....    SUB      r0,r10,r8
        0x000412b0:    4681        .F      MOV      r9,r0
        0x000412b2:    4621        !F      MOV      r1,r4
        0x000412b4:    f000f936    ..6.    BL       _printf_pre_padding ; 0x41524
        0x000412b8:    4430        0D      ADD      r0,r0,r6
        0x000412ba:    eb000608    ....    ADD      r6,r0,r8
        0x000412be:    e004        ..      B        0x412ca ; _printf_core + 474
        0x000412c0:    e9dd120f    ....    LDRD     r1,r2,[sp,#0x3c]
        0x000412c4:    f81b0b01    ....    LDRB     r0,[r11],#1
        0x000412c8:    4790        .G      BLX      r2
        0x000412ca:    f1b80801    ....    SUBS     r8,r8,#1
        0x000412ce:    d2f7        ..      BCS      0x412c0 ; _printf_core + 464
        0x000412d0:    4621        !F      MOV      r1,r4
        0x000412d2:    4648        HF      MOV      r0,r9
        0x000412d4:    e0f7        ..      B        0x414c6 ; _printf_core + 982
        0x000412d6:    210a        .!      MOVS     r1,#0xa
        0x000412d8:    f3c45302    ...S    UBFX     r3,r4,#20,#3
        0x000412dc:    f04f0b00    O...    MOV      r11,#0
        0x000412e0:    9108        ..      STR      r1,[sp,#0x20]
        0x000412e2:    2b02        .+      CMP      r3,#2
        0x000412e4:    d004        ..      BEQ      0x412f0 ; _printf_core + 512
        0x000412e6:    cf01        ..      LDM      r7!,{r0}
        0x000412e8:    17c1        ..      ASRS     r1,r0,#31
        0x000412ea:    2b03        .+      CMP      r3,#3
        0x000412ec:    d009        ..      BEQ      0x41302 ; _printf_core + 530
        0x000412ee:    e00a        ..      B        0x41306 ; _printf_core + 534
        0x000412f0:    1dff        ..      ADDS     r7,r7,#7
        0x000412f2:    f0270707    '...    BIC      r7,r7,#7
        0x000412f6:    e8f70102    ....    LDRD     r0,r1,[r7],#8
        0x000412fa:    e008        ..      B        0x4130e ; _printf_core + 542
        0x000412fc:    e032        2.      B        0x41364 ; _printf_core + 628
        0x000412fe:    e01f        ..      B        0x41340 ; _printf_core + 592
        0x00041300:    e020         .      B        0x41344 ; _printf_core + 596
        0x00041302:    b200        ..      SXTH     r0,r0
        0x00041304:    17c1        ..      ASRS     r1,r0,#31
        0x00041306:    2b04        .+      CMP      r3,#4
        0x00041308:    d101        ..      BNE      0x4130e ; _printf_core + 542
        0x0004130a:    b240        @.      SXTB     r0,r0
        0x0004130c:    17c1        ..      ASRS     r1,r0,#31
        0x0004130e:    1e03        ..      SUBS     r3,r0,#0
        0x00041310:    f1710300    q...    SBCS     r3,r1,#0
        0x00041314:    da07        ..      BGE      0x41326 ; _printf_core + 566
        0x00041316:    f04f0c00    O...    MOV      r12,#0
        0x0004131a:    ebd0000c    ....    RSBS     r0,r0,r12
        0x0004131e:    eb6c0101    l...    SBC      r1,r12,r1
        0x00041322:    232d        -#      MOVS     r3,#0x2d
        0x00041324:    e002        ..      B        0x4132c ; _printf_core + 572
        0x00041326:    0523        #.      LSLS     r3,r4,#20
        0x00041328:    d504        ..      BPL      0x41334 ; _printf_core + 580
        0x0004132a:    232b        +#      MOVS     r3,#0x2b
        0x0004132c:    f88d3024    ..$0    STRB     r3,[sp,#0x24]
        0x00041330:    2301        .#      MOVS     r3,#1
        0x00041332:    e003        ..      B        0x4133c ; _printf_core + 588
        0x00041334:    07e3        ..      LSLS     r3,r4,#31
        0x00041336:    d001        ..      BEQ      0x4133c ; _printf_core + 588
        0x00041338:    2320         #      MOVS     r3,#0x20
        0x0004133a:    e7f7        ..      B        0x4132c ; _printf_core + 572
        0x0004133c:    4698        .F      MOV      r8,r3
        0x0004133e:    e058        X.      B        0x413f2 ; _printf_core + 770
        0x00041340:    210a        .!      MOVS     r1,#0xa
        0x00041342:    e010        ..      B        0x41366 ; _printf_core + 630
        0x00041344:    2110        .!      MOVS     r1,#0x10
        0x00041346:    e00e        ..      B        0x41366 ; _printf_core + 630
        0x00041348:    2010        .       MOVS     r0,#0x10
        0x0004134a:    f04f0b00    O...    MOV      r11,#0
        0x0004134e:    9008        ..      STR      r0,[sp,#0x20]
        0x00041350:    e00c        ..      B        0x4136c ; _printf_core + 636
        0x00041352:    2110        .!      MOVS     r1,#0x10
        0x00041354:    f04f0b00    O...    MOV      r11,#0
        0x00041358:    f0440404    D...    ORR      r4,r4,#4
        0x0004135c:    f04f0908    O...    MOV      r9,#8
        0x00041360:    9108        ..      STR      r1,[sp,#0x20]
        0x00041362:    e003        ..      B        0x4136c ; _printf_core + 636
        0x00041364:    2108        .!      MOVS     r1,#8
        0x00041366:    f04f0b00    O...    MOV      r11,#0
        0x0004136a:    9108        ..      STR      r1,[sp,#0x20]
        0x0004136c:    f3c45302    ...S    UBFX     r3,r4,#20,#3
        0x00041370:    2b02        .+      CMP      r3,#2
        0x00041372:    d004        ..      BEQ      0x4137e ; _printf_core + 654
        0x00041374:    cf01        ..      LDM      r7!,{r0}
        0x00041376:    2100        .!      MOVS     r1,#0
        0x00041378:    2b03        .+      CMP      r3,#3
        0x0004137a:    d006        ..      BEQ      0x4138a ; _printf_core + 666
        0x0004137c:    e006        ..      B        0x4138c ; _printf_core + 668
        0x0004137e:    1dff        ..      ADDS     r7,r7,#7
        0x00041380:    f0270707    '...    BIC      r7,r7,#7
        0x00041384:    e8f70102    ....    LDRD     r0,r1,[r7],#8
        0x00041388:    e003        ..      B        0x41392 ; _printf_core + 674
        0x0004138a:    b280        ..      UXTH     r0,r0
        0x0004138c:    2b04        .+      CMP      r3,#4
        0x0004138e:    d100        ..      BNE      0x41392 ; _printf_core + 674
        0x00041390:    b2c0        ..      UXTB     r0,r0
        0x00041392:    f04f0800    O...    MOV      r8,#0
        0x00041396:    0723        #.      LSLS     r3,r4,#28
        0x00041398:    d52b        +.      BPL      0x413f2 ; _printf_core + 770
        0x0004139a:    2a70        p*      CMP      r2,#0x70
        0x0004139c:    d007        ..      BEQ      0x413ae ; _printf_core + 702
        0x0004139e:    f8ddc020    .. .    LDR      r12,[sp,#0x20]
        0x000413a2:    f08c0c10    ....    EOR      r12,r12,#0x10
        0x000413a6:    ea5c0c0b    \...    ORRS     r12,r12,r11
        0x000413aa:    d005        ..      BEQ      0x413b8 ; _printf_core + 712
        0x000413ac:    e00e        ..      B        0x413cc ; _printf_core + 732
        0x000413ae:    2340        @#      MOVS     r3,#0x40
        0x000413b0:    f88d3024    ..$0    STRB     r3,[sp,#0x24]
        0x000413b4:    2301        .#      MOVS     r3,#1
        0x000413b6:    e008        ..      B        0x413ca ; _printf_core + 730
        0x000413b8:    ea500301    P...    ORRS     r3,r0,r1
        0x000413bc:    d006        ..      BEQ      0x413cc ; _printf_core + 732
        0x000413be:    2330        0#      MOVS     r3,#0x30
        0x000413c0:    f88d3024    ..$0    STRB     r3,[sp,#0x24]
        0x000413c4:    f88d2025    ..%     STRB     r2,[sp,#0x25]
        0x000413c8:    2302        .#      MOVS     r3,#2
        0x000413ca:    4698        .F      MOV      r8,r3
        0x000413cc:    f8ddc020    .. .    LDR      r12,[sp,#0x20]
        0x000413d0:    f08c0c08    ....    EOR      r12,r12,#8
        0x000413d4:    ea5c0c0b    \...    ORRS     r12,r12,r11
        0x000413d8:    d10b        ..      BNE      0x413f2 ; _printf_core + 770
        0x000413da:    ea500301    P...    ORRS     r3,r0,r1
        0x000413de:    d101        ..      BNE      0x413e4 ; _printf_core + 756
        0x000413e0:    0763        c.      LSLS     r3,r4,#29
        0x000413e2:    d506        ..      BPL      0x413f2 ; _printf_core + 770
        0x000413e4:    2330        0#      MOVS     r3,#0x30
        0x000413e6:    f88d3024    ..$0    STRB     r3,[sp,#0x24]
        0x000413ea:    f04f0801    O...    MOV      r8,#1
        0x000413ee:    f1a90901    ....    SUB      r9,r9,#1
        0x000413f2:    2a58        X*      CMP      r2,#0x58
        0x000413f4:    d004        ..      BEQ      0x41400 ; _printf_core + 784
        0x000413f6:    a238        8.      ADR      r2,{pc}+0xe2 ; 0x414d8
        0x000413f8:    920b        ..      STR      r2,[sp,#0x2c]
        0x000413fa:    aa08        ..      ADD      r2,sp,#0x20
        0x000413fc:    920a        ..      STR      r2,[sp,#0x28]
        0x000413fe:    e00b        ..      B        0x41418 ; _printf_core + 808
        0x00041400:    a23a        :.      ADR      r2,{pc}+0xec ; 0x414ec
        0x00041402:    e7f9        ..      B        0x413f8 ; _printf_core + 776
        0x00041404:    465b        [F      MOV      r3,r11
        0x00041406:    9a08        ..      LDR      r2,[sp,#0x20]
        0x00041408:    f7feff52    ..R.    BL       __aeabi_uldivmod ; 0x402b0
        0x0004140c:    9b0b        ..      LDR      r3,[sp,#0x2c]
        0x0004140e:    5c9b        .\      LDRB     r3,[r3,r2]
        0x00041410:    9a0a        ..      LDR      r2,[sp,#0x28]
        0x00041412:    1e52        R.      SUBS     r2,r2,#1
        0x00041414:    920a        ..      STR      r2,[sp,#0x28]
        0x00041416:    7013        .p      STRB     r3,[r2,#0]
        0x00041418:    ea500201    P...    ORRS     r2,r0,r1
        0x0004141c:    d1f2        ..      BNE      0x41404 ; _printf_core + 788
        0x0004141e:    980a        ..      LDR      r0,[sp,#0x28]
        0x00041420:    ebad0000    ....    SUB      r0,sp,r0
        0x00041424:    f1000b20    .. .    ADD      r11,r0,#0x20
        0x00041428:    0760        `.      LSLS     r0,r4,#29
        0x0004142a:    d502        ..      BPL      0x41432 ; _printf_core + 834
        0x0004142c:    f4243480    $..4    BIC      r4,r4,#0x10000
        0x00041430:    e001        ..      B        0x41436 ; _printf_core + 838
        0x00041432:    f04f0901    O...    MOV      r9,#1
        0x00041436:    45d9        .E      CMP      r9,r11
        0x00041438:    dd02        ..      BLE      0x41440 ; _printf_core + 848
        0x0004143a:    eba9000b    ....    SUB      r0,r9,r11
        0x0004143e:    e000        ..      B        0x41442 ; _printf_core + 850
        0x00041440:    2000        .       MOVS     r0,#0
        0x00041442:    eb00010b    ....    ADD      r1,r0,r11
        0x00041446:    4441        AD      ADD      r1,r1,r8
        0x00041448:    9008        ..      STR      r0,[sp,#0x20]
        0x0004144a:    ebaa0a01    ....    SUB      r10,r10,r1
        0x0004144e:    03e0        ..      LSLS     r0,r4,#15
        0x00041450:    d406        ..      BMI      0x41460 ; _printf_core + 880
        0x00041452:    e9dd230f    ...#    LDRD     r2,r3,[sp,#0x3c]
        0x00041456:    4621        !F      MOV      r1,r4
        0x00041458:    4650        PF      MOV      r0,r10
        0x0004145a:    f000f863    ..c.    BL       _printf_pre_padding ; 0x41524
        0x0004145e:    4406        .D      ADD      r6,r6,r0
        0x00041460:    f04f0900    O...    MOV      r9,#0
        0x00041464:    e008        ..      B        0x41478 ; _printf_core + 904
        0x00041466:    a909        ..      ADD      r1,sp,#0x24
        0x00041468:    f8110009    ....    LDRB     r0,[r1,r9]
        0x0004146c:    e9dd120f    ....    LDRD     r1,r2,[sp,#0x3c]
        0x00041470:    4790        .G      BLX      r2
        0x00041472:    f1090901    ....    ADD      r9,r9,#1
        0x00041476:    1c76        v.      ADDS     r6,r6,#1
        0x00041478:    45c1        .E      CMP      r9,r8
        0x0004147a:    dbf4        ..      BLT      0x41466 ; _printf_core + 886
        0x0004147c:    03e0        ..      LSLS     r0,r4,#15
        0x0004147e:    d50c        ..      BPL      0x4149a ; _printf_core + 938
        0x00041480:    e9dd230f    ...#    LDRD     r2,r3,[sp,#0x3c]
        0x00041484:    4621        !F      MOV      r1,r4
        0x00041486:    4650        PF      MOV      r0,r10
        0x00041488:    f000f84c    ..L.    BL       _printf_pre_padding ; 0x41524
        0x0004148c:    4406        .D      ADD      r6,r6,r0
        0x0004148e:    e004        ..      B        0x4149a ; _printf_core + 938
        0x00041490:    e9dd120f    ....    LDRD     r1,r2,[sp,#0x3c]
        0x00041494:    2030        0       MOVS     r0,#0x30
        0x00041496:    4790        .G      BLX      r2
        0x00041498:    1c76        v.      ADDS     r6,r6,#1
        0x0004149a:    9908        ..      LDR      r1,[sp,#0x20]
        0x0004149c:    1e48        H.      SUBS     r0,r1,#1
        0x0004149e:    9008        ..      STR      r0,[sp,#0x20]
        0x000414a0:    2900        .)      CMP      r1,#0
        0x000414a2:    dcf5        ..      BGT      0x41490 ; _printf_core + 928
        0x000414a4:    e008        ..      B        0x414b8 ; _printf_core + 968
        0x000414a6:    980a        ..      LDR      r0,[sp,#0x28]
        0x000414a8:    990a        ..      LDR      r1,[sp,#0x28]
        0x000414aa:    7800        .x      LDRB     r0,[r0,#0]
        0x000414ac:    1c49        I.      ADDS     r1,r1,#1
        0x000414ae:    910a        ..      STR      r1,[sp,#0x28]
        0x000414b0:    e9dd120f    ....    LDRD     r1,r2,[sp,#0x3c]
        0x000414b4:    4790        .G      BLX      r2
        0x000414b6:    1c76        v.      ADDS     r6,r6,#1
        0x000414b8:    f1bb0100    ....    SUBS     r1,r11,#0
        0x000414bc:    f1ab0b01    ....    SUB      r11,r11,#1
        0x000414c0:    dcf1        ..      BGT      0x414a6 ; _printf_core + 950
        0x000414c2:    4621        !F      MOV      r1,r4
        0x000414c4:    4650        PF      MOV      r0,r10
        0x000414c6:    e9dd230f    ...#    LDRD     r2,r3,[sp,#0x3c]
        0x000414ca:    f000f819    ....    BL       _printf_post_padding ; 0x41500
        0x000414ce:    4406        .D      ADD      r6,r6,r0
        0x000414d0:    1c6d        m.      ADDS     r5,r5,#1
        0x000414d2:    e61b        ..      B        0x4110c ; _printf_core + 28
    $d
        0x000414d4:    00012809    .(..    DCD    75785
        0x000414d8:    33323130    0123    DCD    858927408
        0x000414dc:    37363534    4567    DCD    926299444
        0x000414e0:    62613938    89ab    DCD    1650538808
        0x000414e4:    66656463    cdef    DCD    1717920867
        0x000414e8:    00000000    ....    DCD    0
        0x000414ec:    33323130    0123    DCD    858927408
        0x000414f0:    37363534    4567    DCD    926299444
        0x000414f4:    42413938    89AB    DCD    1111570744
        0x000414f8:    46454443    CDEF    DCD    1178944579
        0x000414fc:    00000000    ....    DCD    0
    $t
    i._printf_post_padding
    _printf_post_padding
        0x00041500:    e92d41f0    -..A    PUSH     {r4-r8,lr}
        0x00041504:    4604        .F      MOV      r4,r0
        0x00041506:    2500        .%      MOVS     r5,#0
        0x00041508:    461e        .F      MOV      r6,r3
        0x0004150a:    4617        .F      MOV      r7,r2
        0x0004150c:    0488        ..      LSLS     r0,r1,#18
        0x0004150e:    d404        ..      BMI      0x4151a ; _printf_post_padding + 26
        0x00041510:    e005        ..      B        0x4151e ; _printf_post_padding + 30
        0x00041512:    4639        9F      MOV      r1,r7
        0x00041514:    2020                MOVS     r0,#0x20
        0x00041516:    47b0        .G      BLX      r6
        0x00041518:    1c6d        m.      ADDS     r5,r5,#1
        0x0004151a:    1e64        d.      SUBS     r4,r4,#1
        0x0004151c:    d5f9        ..      BPL      0x41512 ; _printf_post_padding + 18
        0x0004151e:    4628        (F      MOV      r0,r5
        0x00041520:    e8bd81f0    ....    POP      {r4-r8,pc}
    i._printf_pre_padding
    _printf_pre_padding
        0x00041524:    e92d41f0    -..A    PUSH     {r4-r8,lr}
        0x00041528:    4604        .F      MOV      r4,r0
        0x0004152a:    2500        .%      MOVS     r5,#0
        0x0004152c:    461e        .F      MOV      r6,r3
        0x0004152e:    4690        .F      MOV      r8,r2
        0x00041530:    03c8        ..      LSLS     r0,r1,#15
        0x00041532:    d501        ..      BPL      0x41538 ; _printf_pre_padding + 20
        0x00041534:    2730        0'      MOVS     r7,#0x30
        0x00041536:    e000        ..      B        0x4153a ; _printf_pre_padding + 22
        0x00041538:    2720         '      MOVS     r7,#0x20
        0x0004153a:    0488        ..      LSLS     r0,r1,#18
        0x0004153c:    d504        ..      BPL      0x41548 ; _printf_pre_padding + 36
        0x0004153e:    e005        ..      B        0x4154c ; _printf_pre_padding + 40
        0x00041540:    4641        AF      MOV      r1,r8
        0x00041542:    4638        8F      MOV      r0,r7
        0x00041544:    47b0        .G      BLX      r6
        0x00041546:    1c6d        m.      ADDS     r5,r5,#1
        0x00041548:    1e64        d.      SUBS     r4,r4,#1
        0x0004154a:    d5f9        ..      BPL      0x41540 ; _printf_pre_padding + 28
        0x0004154c:    4628        (F      MOV      r0,r5
        0x0004154e:    e8bd81f0    ....    POP      {r4-r8,pc}
        0x00041552:    0000        ..      MOVS     r0,r0
    i.check_reset_source
    check_reset_source
        0x00041554:    b570        p.      PUSH     {r4-r6,lr}
        0x00041556:    f7fffa60    ..`.    BL       SYS_GetResetSrc ; 0x40a1a
        0x0004155a:    f04f4580    O..E    MOV      r5,#0x40000000
        0x0004155e:    4604        .F      MOV      r4,r0
        0x00041560:    f8d501f4    ....    LDR      r0,[r5,#0x1f4]
        0x00041564:    b2c0        ..      UXTB     r0,r0
        0x00041566:    2801        .(      CMP      r0,#1
        0x00041568:    d03f        ?.      BEQ      0x415ea ; check_reset_source + 150
        0x0004156a:    a03c        <.      ADR      r0,{pc}+0xf2 ; 0x4165c
        0x0004156c:    f7fffda0    ....    BL       __0printf$8 ; 0x410b0
        0x00041570:    6868        hh      LDR      r0,[r5,#4]
        0x00041572:    f24011ff    @...    MOV      r1,#0x1ff
        0x00041576:    4308        .C      ORRS     r0,r0,r1
        0x00041578:    6068        h`      STR      r0,[r5,#4]
        0x0004157a:    4621        !F      MOV      r1,r4
        0x0004157c:    a03b        ;.      ADR      r0,{pc}+0xf0 ; 0x4166c
        0x0004157e:    f7fffd97    ....    BL       __0printf$8 ; 0x410b0
        0x00041582:    07e0        ..      LSLS     r0,r4,#31
        0x00041584:    d002        ..      BEQ      0x4158c ; check_reset_source + 56
        0x00041586:    a03f        ?.      ADR      r0,{pc}+0xfe ; 0x41684
        0x00041588:    f7fffd92    ....    BL       __0printf$8 ; 0x410b0
        0x0004158c:    07a0        ..      LSLS     r0,r4,#30
        0x0004158e:    d502        ..      BPL      0x41596 ; check_reset_source + 66
        0x00041590:    a041        A.      ADR      r0,{pc}+0x108 ; 0x41698
        0x00041592:    f7fffd8d    ....    BL       __0printf$8 ; 0x410b0
        0x00041596:    0760        `.      LSLS     r0,r4,#29
        0x00041598:    d502        ..      BPL      0x415a0 ; check_reset_source + 76
        0x0004159a:    a046        F.      ADR      r0,{pc}+0x11a ; 0x416b4
        0x0004159c:    f7fffd88    ....    BL       __0printf$8 ; 0x410b0
        0x000415a0:    0720         .      LSLS     r0,r4,#28
        0x000415a2:    d502        ..      BPL      0x415aa ; check_reset_source + 86
        0x000415a4:    a048        H.      ADR      r0,{pc}+0x124 ; 0x416c8
        0x000415a6:    f7fffd83    ....    BL       __0printf$8 ; 0x410b0
        0x000415aa:    06e0        ..      LSLS     r0,r4,#27
        0x000415ac:    d502        ..      BPL      0x415b4 ; check_reset_source + 96
        0x000415ae:    a04b        K.      ADR      r0,{pc}+0x12e ; 0x416dc
        0x000415b0:    f7fffd7e    ..~.    BL       __0printf$8 ; 0x410b0
        0x000415b4:    06a0        ..      LSLS     r0,r4,#26
        0x000415b6:    d502        ..      BPL      0x415be ; check_reset_source + 106
        0x000415b8:    a04d        M.      ADR      r0,{pc}+0x138 ; 0x416f0
        0x000415ba:    f7fffd79    ..y.    BL       __0printf$8 ; 0x410b0
        0x000415be:    0660        `.      LSLS     r0,r4,#25
        0x000415c0:    d502        ..      BPL      0x415c8 ; check_reset_source + 116
        0x000415c2:    a051        Q.      ADR      r0,{pc}+0x146 ; 0x41708
        0x000415c4:    f7fffd74    ..t.    BL       __0printf$8 ; 0x410b0
        0x000415c8:    0620         .      LSLS     r0,r4,#24
        0x000415ca:    d502        ..      BPL      0x415d2 ; check_reset_source + 126
        0x000415cc:    a054        T.      ADR      r0,{pc}+0x154 ; 0x41720
        0x000415ce:    f7fffd6f    ..o.    BL       __0printf$8 ; 0x410b0
        0x000415d2:    05e0        ..      LSLS     r0,r4,#23
        0x000415d4:    d502        ..      BPL      0x415dc ; check_reset_source + 136
        0x000415d6:    a057        W.      ADR      r0,{pc}+0x15e ; 0x41734
        0x000415d8:    f7fffd6a    ..j.    BL       __0printf$8 ; 0x410b0
        0x000415dc:    07e0        ..      LSLS     r0,r4,#31
        0x000415de:    d006        ..      BEQ      0x415ee ; check_reset_source + 154
        0x000415e0:    2001        .       MOVS     r0,#1
        0x000415e2:    f7fffa14    ....    BL       SYS_ClearResetSrc ; 0x40a0e
        0x000415e6:    a05a        Z.      ADR      r0,{pc}+0x16a ; 0x41750
        0x000415e8:    e032        2.      B        0x41650 ; check_reset_source + 252
        0x000415ea:    a05e        ^.      ADR      r0,{pc}+0x17a ; 0x41764
        0x000415ec:    e7be        ..      B        0x4156c ; check_reset_source + 24
        0x000415ee:    07a0        ..      LSLS     r0,r4,#30
        0x000415f0:    d504        ..      BPL      0x415fc ; check_reset_source + 168
        0x000415f2:    2002        .       MOVS     r0,#2
        0x000415f4:    f7fffa0b    ....    BL       SYS_ClearResetSrc ; 0x40a0e
        0x000415f8:    a05e        ^.      ADR      r0,{pc}+0x17c ; 0x41774
        0x000415fa:    e029        ).      B        0x41650 ; check_reset_source + 252
        0x000415fc:    0760        `.      LSLS     r0,r4,#29
        0x000415fe:    d504        ..      BPL      0x4160a ; check_reset_source + 182
        0x00041600:    2004        .       MOVS     r0,#4
        0x00041602:    f7fffa04    ....    BL       SYS_ClearResetSrc ; 0x40a0e
        0x00041606:    a062        b.      ADR      r0,{pc}+0x18a ; 0x41790
        0x00041608:    e022        ".      B        0x41650 ; check_reset_source + 252
        0x0004160a:    0720         .      LSLS     r0,r4,#28
        0x0004160c:    d504        ..      BPL      0x41618 ; check_reset_source + 196
        0x0004160e:    2008        .       MOVS     r0,#8
        0x00041610:    f7fff9fd    ....    BL       SYS_ClearResetSrc ; 0x40a0e
        0x00041614:    a065        e.      ADR      r0,{pc}+0x198 ; 0x417ac
        0x00041616:    e01b        ..      B        0x41650 ; check_reset_source + 252
        0x00041618:    06e0        ..      LSLS     r0,r4,#27
        0x0004161a:    d504        ..      BPL      0x41626 ; check_reset_source + 210
        0x0004161c:    2010        .       MOVS     r0,#0x10
        0x0004161e:    f7fff9f6    ....    BL       SYS_ClearResetSrc ; 0x40a0e
        0x00041622:    a069        i.      ADR      r0,{pc}+0x1a6 ; 0x417c8
        0x00041624:    e014        ..      B        0x41650 ; check_reset_source + 252
        0x00041626:    06a0        ..      LSLS     r0,r4,#26
        0x00041628:    d504        ..      BPL      0x41634 ; check_reset_source + 224
        0x0004162a:    2020                MOVS     r0,#0x20
        0x0004162c:    f7fff9ef    ....    BL       SYS_ClearResetSrc ; 0x40a0e
        0x00041630:    a06c        l.      ADR      r0,{pc}+0x1b4 ; 0x417e4
        0x00041632:    e00d        ..      B        0x41650 ; check_reset_source + 252
        0x00041634:    0620         .      LSLS     r0,r4,#24
        0x00041636:    d504        ..      BPL      0x41642 ; check_reset_source + 238
        0x00041638:    2080        .       MOVS     r0,#0x80
        0x0004163a:    f7fff9e8    ....    BL       SYS_ClearResetSrc ; 0x40a0e
        0x0004163e:    a071        q.      ADR      r0,{pc}+0x1c6 ; 0x41804
        0x00041640:    e006        ..      B        0x41650 ; check_reset_source + 252
        0x00041642:    05e0        ..      LSLS     r0,r4,#23
        0x00041644:    d508        ..      BPL      0x41658 ; check_reset_source + 260
        0x00041646:    f44f7080    O..p    MOV      r0,#0x100
        0x0004164a:    f7fff9e0    ....    BL       SYS_ClearResetSrc ; 0x40a0e
        0x0004164e:    a074        t.      ADR      r0,{pc}+0x1d2 ; 0x41820
        0x00041650:    f7fffd2e    ....    BL       __0printf$8 ; 0x410b0
        0x00041654:    2000        .       MOVS     r0,#0
        0x00041656:    bd70        p.      POP      {r4-r6,pc}
        0x00041658:    a07a        z.      ADR      r0,{pc}+0x1ec ; 0x41844
        0x0004165a:    e7f9        ..      B        0x41650 ; check_reset_source + 252
    $d
        0x0004165c:    3a204e50    PN :    DCD    975195728
        0x00041660:    38344d20     M48    DCD    942951712
        0x00041664:    41444978    xIDA    DCD    1094994296
        0x00041668:    000a0d45    E...    DCD    658757
        0x0004166c:    65736552    Rese    DCD    1702061394
        0x00041670:    6f532074    t So    DCD    1867718772
        0x00041674:    65637275    urce    DCD    1701016181
        0x00041678:    78303c20     <0x    DCD    2016427040
        0x0004167c:    58383025    %08X    DCD    1480077349
        0x00041680:    000a0d3e    >...    DCD    658750
        0x00041684:    4f502930    0)PO    DCD    1330653488
        0x00041688:    65522052    R Re    DCD    1699881042
        0x0004168c:    20746573    set     DCD    544499059
        0x00041690:    67616c46    Flag    DCD    1734437958
        0x00041694:    00000a0d    ....    DCD    2573
        0x00041698:    524e2931    1)NR    DCD    1380854065
        0x0004169c:    54455345    ESET    DCD    1413829445
        0x000416a0:    6e695020     Pin    DCD    1852395552
        0x000416a4:    73655220     Res    DCD    1936020000
        0x000416a8:    46207465    et F    DCD    1176532069
        0x000416ac:    0d67616c    lag.    DCD    224878956
        0x000416b0:    0000000a    ....    DCD    10
        0x000416b4:    44572932    2)WD    DCD    1146562866
        0x000416b8:    65522054    T Re    DCD    1699881044
        0x000416bc:    20746573    set     DCD    544499059
        0x000416c0:    67616c46    Flag    DCD    1734437958
        0x000416c4:    00000a0d    ....    DCD    2573
        0x000416c8:    564c2933    3)LV    DCD    1447831859
        0x000416cc:    65522052    R Re    DCD    1699881042
        0x000416d0:    20746573    set     DCD    544499059
        0x000416d4:    67616c46    Flag    DCD    1734437958
        0x000416d8:    00000a0d    ....    DCD    2573
        0x000416dc:    4f422934    4)BO    DCD    1329735988
        0x000416e0:    65522044    D Re    DCD    1699881028
        0x000416e4:    20746573    set     DCD    544499059
        0x000416e8:    67616c46    Flag    DCD    1734437958
        0x000416ec:    00000a0d    ....    DCD    2573
        0x000416f0:    79532935    5)Sy    DCD    2035493173
        0x000416f4:    6d657473    stem    DCD    1835365491
        0x000416f8:    73655220     Res    DCD    1936020000
        0x000416fc:    46207465    et F    DCD    1176532069
        0x00041700:    2067616c    lag     DCD    543646060
        0x00041704:    00000a0d    ....    DCD    2573
        0x00041708:    52482936    6)HR    DCD    1380460854
        0x0004170c:    54455345    ESET    DCD    1413829445
        0x00041710:    73655220     Res    DCD    1936020000
        0x00041714:    46207465    et F    DCD    1176532069
        0x00041718:    2067616c    lag     DCD    543646060
        0x0004171c:    00000a0d    ....    DCD    2573
        0x00041720:    50432937    7)CP    DCD    1346578743
        0x00041724:    65522055    U Re    DCD    1699881045
        0x00041728:    20746573    set     DCD    544499059
        0x0004172c:    67616c46    Flag    DCD    1734437958
        0x00041730:    00000a0d    ....    DCD    2573
        0x00041734:    50432938    8)CP    DCD    1346578744
        0x00041738:    6f4c2055    U Lo    DCD    1867259989
        0x0004173c:    70756b63    ckup    DCD    1886743395
        0x00041740:    73655220     Res    DCD    1936020000
        0x00041744:    46207465    et F    DCD    1176532069
        0x00041748:    0d67616c    lag.    DCD    224878956
        0x0004174c:    0000000a    ....    DCD    10
        0x00041750:    65776f70    powe    DCD    1702326128
        0x00041754:    6e6f2072    r on    DCD    1852776562
        0x00041758:    6f726620     fro    DCD    1869768224
        0x0004175c:    4f50206d    m PO    DCD    1330651245
        0x00041760:    000a0d52    R...    DCD    658770
        0x00041764:    3a204e50    PN :    DCD    975195728
        0x00041768:    38344d20     M48    DCD    942951712
        0x0004176c:    41434778    xGCA    DCD    1094928248
        0x00041770:    000a0d45    E...    DCD    658757
        0x00041774:    65776f70    powe    DCD    1702326128
        0x00041778:    6e6f2072    r on    DCD    1852776562
        0x0004177c:    6f726620     fro    DCD    1869768224
        0x00041780:    526e206d    m nR    DCD    1382948973
        0x00041784:    54455345    ESET    DCD    1413829445
        0x00041788:    6e697020     pin    DCD    1852403744
        0x0004178c:    00000a0d    ....    DCD    2573
        0x00041790:    65776f70    powe    DCD    1702326128
        0x00041794:    6e6f2072    r on    DCD    1852776562
        0x00041798:    6f726620     fro    DCD    1869768224
        0x0004179c:    4457206d    m WD    DCD    1146560621
        0x000417a0:    65522054    T Re    DCD    1699881044
        0x000417a4:    0d746573    set.    DCD    225731955
        0x000417a8:    0000000a    ....    DCD    10
        0x000417ac:    65776f70    powe    DCD    1702326128
        0x000417b0:    6e6f2072    r on    DCD    1852776562
        0x000417b4:    6f726620     fro    DCD    1869768224
        0x000417b8:    564c206d    m LV    DCD    1447829613
        0x000417bc:    65522052    R Re    DCD    1699881042
        0x000417c0:    0d746573    set.    DCD    225731955
        0x000417c4:    0000000a    ....    DCD    10
        0x000417c8:    65776f70    powe    DCD    1702326128
        0x000417cc:    6e6f2072    r on    DCD    1852776562
        0x000417d0:    6f726620     fro    DCD    1869768224
        0x000417d4:    4f42206d    m BO    DCD    1329733741
        0x000417d8:    65522044    D Re    DCD    1699881028
        0x000417dc:    0d746573    set.    DCD    225731955
        0x000417e0:    0000000a    ....    DCD    10
        0x000417e4:    65776f70    powe    DCD    1702326128
        0x000417e8:    6e6f2072    r on    DCD    1852776562
        0x000417ec:    6f726620     fro    DCD    1869768224
        0x000417f0:    7953206d    m Sy    DCD    2035490925
        0x000417f4:    6d657473    stem    DCD    1835365491
        0x000417f8:    73655220     Res    DCD    1936020000
        0x000417fc:    0a0d7465    et..    DCD    168653925
        0x00041800:    00000000    ....    DCD    0
        0x00041804:    65776f70    powe    DCD    1702326128
        0x00041808:    6e6f2072    r on    DCD    1852776562
        0x0004180c:    6f726620     fro    DCD    1869768224
        0x00041810:    5043206d    m CP    DCD    1346576493
        0x00041814:    65722055    U re    DCD    1701978197
        0x00041818:    0d746573    set.    DCD    225731955
        0x0004181c:    0000000a    ....    DCD    10
        0x00041820:    65776f70    powe    DCD    1702326128
        0x00041824:    6e6f2072    r on    DCD    1852776562
        0x00041828:    6f726620     fro    DCD    1869768224
        0x0004182c:    5043206d    m CP    DCD    1346576493
        0x00041830:    6f4c2055    U Lo    DCD    1867259989
        0x00041834:    70756b63    ckup    DCD    1886743395
        0x00041838:    73655220     Res    DCD    1936020000
        0x0004183c:    0a0d7465    et..    DCD    168653925
        0x00041840:    00000000    ....    DCD    0
        0x00041844:    65776f70    powe    DCD    1702326128
        0x00041848:    6e6f2072    r on    DCD    1852776562
        0x0004184c:    6f726620     fro    DCD    1869768224
        0x00041850:    6e75206d    m un    DCD    1853169773
        0x00041854:    646e6168    hand    DCD    1684955496
        0x00041858:    7220656c    le r    DCD    1914725740
        0x0004185c:    74657365    eset    DCD    1952805733
        0x00041860:    756f7320     sou    DCD    1970238240
        0x00041864:    0d656372    rce.    DCD    224748402
        0x00041868:    0000000a    ....    DCD    10
    $t
    i.fputc
    fputc
        0x0004186c:    b510        ..      PUSH     {r4,lr}
        0x0004186e:    4604        .F      MOV      r4,r0
        0x00041870:    f7fff93a    ..:.    BL       SendChar ; 0x40ae8
        0x00041874:    4620         F      MOV      r0,r4
        0x00041876:    bd10        ..      POP      {r4,pc}
    i.loop
    loop
        0x00041878:    b510        ..      PUSH     {r4,lr}
        0x0004187a:    4911        .I      LDR      r1,[pc,#68] ; [0x418c0] = 0x20000038
        0x0004187c:    6808        .h      LDR      r0,[r1,#0]
        0x0004187e:    f1010410    ....    ADD      r4,r1,#0x10
        0x00041882:    6820         h      LDR      r0,[r4,#0]
        0x00041884:    07c2        ..      LSLS     r2,r0,#31
        0x00041886:    d00f        ..      BEQ      0x418a8 ; loop + 48
        0x00041888:    f0200001     ...    BIC      r0,r0,#1
        0x0004188c:    6020         `      STR      r0,[r4,#0]
        0x0004188e:    68ca        .h      LDR      r2,[r1,#0xc]
        0x00041890:    1c50        P.      ADDS     r0,r2,#1
        0x00041892:    60c8        .`      STR      r0,[r1,#0xc]
        0x00041894:    688b        .h      LDR      r3,[r1,#8]
        0x00041896:    490b        .I      LDR      r1,[pc,#44] ; [0x418c4] = 0x41a40
        0x00041898:    a00b        ..      ADR      r0,{pc}+0x30 ; 0x418c8
        0x0004189a:    f7fffc09    ....    BL       __0printf$8 ; 0x410b0
        0x0004189e:    4814        .H      LDR      r0,[pc,#80] ; [0x418f0] = 0x400049c0
        0x000418a0:    6801        .h      LDR      r1,[r0,#0]
        0x000418a2:    f0810101    ....    EOR      r1,r1,#1
        0x000418a6:    6001        .`      STR      r1,[r0,#0]
        0x000418a8:    6820         h      LDR      r0,[r4,#0]
        0x000418aa:    0781        ..      LSLS     r1,r0,#30
        0x000418ac:    d506        ..      BPL      0x418bc ; loop + 68
        0x000418ae:    f0200002     ...    BIC      r0,r0,#2
        0x000418b2:    6020         `      STR      r0,[r4,#0]
        0x000418b4:    e8bd4010    ...@    POP      {r4,lr}
        0x000418b8:    f7febd5e    ..^.    B        BOOT_PROCESS ; 0x40378
        0x000418bc:    bd10        ..      POP      {r4,pc}
    $d
        0x000418be:    0000        ..      DCW    0
        0x000418c0:    20000038    8..     DCD    536870968
        0x000418c4:    00041a40    @...    DCD    268864
        0x000418c8:    74287325    %s(t    DCD    1948807973
        0x000418cc:    72656d69    imer    DCD    1919249769
        0x000418d0:    203a2029    ) :     DCD    540680233
        0x000418d4:    20643425    %4d     DCD    543437861
        0x000418d8:    6576202c    , ve    DCD    1702240300
        0x000418dc:    726f7463    ctor    DCD    1919906915
        0x000418e0:    70616d20     map    DCD    1885433120
        0x000418e4:    30203a20     : 0    DCD    807418400
        0x000418e8:    58382578    x%8X    DCD    1480074616
        0x000418ec:    00000a0d    ....    DCD    2573
        0x000418f0:    400049c0    .I.@    DCD    1073760704
    $t
    i.main
    main
        0x000418f4:    f7fff896    ....    BL       SYS_Init ; 0x40a24
        0x000418f8:    f7fff830    ..0.    BL       GPIO_Init ; 0x4095c
        0x000418fc:    f7fffa4a    ..J.    BL       UART0_Init ; 0x40d94
        0x00041900:    f7fff99e    ....    BL       TIMER1_Init ; 0x40c40
        0x00041904:    f7fffe26    ..&.    BL       check_reset_source ; 0x41554
        0x00041908:    f44f707a    O.zp    MOV      r0,#0x3e8
        0x0004190c:    f7fff908    ....    BL       SysTick_enable ; 0x40b20
        0x00041910:    f7fff804    ....    BL       GET_VECMAP ; 0x4091c
        0x00041914:    f7ffffb0    ....    BL       loop ; 0x41878
        0x00041918:    e7fc        ..      B        0x41914 ; main + 32
        0x0004191a:    0000        ..      MOVS     r0,r0
    i.stackDump
    stackDump
        0x0004191c:    b510        ..      PUSH     {r4,lr}
        0x0004191e:    4604        .F      MOV      r4,r0
        0x00041920:    6801        .h      LDR      r1,[r0,#0]
        0x00041922:    a010        ..      ADR      r0,{pc}+0x42 ; 0x41964
        0x00041924:    f7fffbc4    ....    BL       __0printf$8 ; 0x410b0
        0x00041928:    a011        ..      ADR      r0,{pc}+0x48 ; 0x41970
        0x0004192a:    6861        ah      LDR      r1,[r4,#4]
        0x0004192c:    f7fffbc0    ....    BL       __0printf$8 ; 0x410b0
        0x00041930:    a012        ..      ADR      r0,{pc}+0x4c ; 0x4197c
        0x00041932:    68a1        .h      LDR      r1,[r4,#8]
        0x00041934:    f7fffbbc    ....    BL       __0printf$8 ; 0x410b0
        0x00041938:    a013        ..      ADR      r0,{pc}+0x50 ; 0x41988
        0x0004193a:    68e1        .h      LDR      r1,[r4,#0xc]
        0x0004193c:    f7fffbb8    ....    BL       __0printf$8 ; 0x410b0
        0x00041940:    a014        ..      ADR      r0,{pc}+0x54 ; 0x41994
        0x00041942:    6921        !i      LDR      r1,[r4,#0x10]
        0x00041944:    f7fffbb4    ....    BL       __0printf$8 ; 0x410b0
        0x00041948:    a015        ..      ADR      r0,{pc}+0x58 ; 0x419a0
        0x0004194a:    6961        ai      LDR      r1,[r4,#0x14]
        0x0004194c:    f7fffbb0    ....    BL       __0printf$8 ; 0x410b0
        0x00041950:    a016        ..      ADR      r0,{pc}+0x5c ; 0x419ac
        0x00041952:    69a1        .i      LDR      r1,[r4,#0x18]
        0x00041954:    f7fffbac    ....    BL       __0printf$8 ; 0x410b0
        0x00041958:    69e1        .i      LDR      r1,[r4,#0x1c]
        0x0004195a:    e8bd4010    ...@    POP      {r4,lr}
        0x0004195e:    a016        ..      ADR      r0,{pc}+0x5a ; 0x419b8
        0x00041960:    f7ffbba6    ....    B        __0printf$8 ; 0x410b0
    $d
        0x00041964:    20203072    r0      DCD    538980466
        0x00041968:    7830203d    = 0x    DCD    2016419901
        0x0004196c:    000a7825    %x..    DCD    686117
        0x00041970:    20203172    r1      DCD    538980722
        0x00041974:    7830203d    = 0x    DCD    2016419901
        0x00041978:    000a7825    %x..    DCD    686117
        0x0004197c:    20203272    r2      DCD    538980978
        0x00041980:    7830203d    = 0x    DCD    2016419901
        0x00041984:    000a7825    %x..    DCD    686117
        0x00041988:    20203372    r3      DCD    538981234
        0x0004198c:    7830203d    = 0x    DCD    2016419901
        0x00041990:    000a7825    %x..    DCD    686117
        0x00041994:    20323172    r12     DCD    540160370
        0x00041998:    7830203d    = 0x    DCD    2016419901
        0x0004199c:    000a7825    %x..    DCD    686117
        0x000419a0:    2020726c    lr      DCD    538997356
        0x000419a4:    7830203d    = 0x    DCD    2016419901
        0x000419a8:    000a7825    %x..    DCD    686117
        0x000419ac:    20206370    pc      DCD    538993520
        0x000419b0:    7830203d    = 0x    DCD    2016419901
        0x000419b4:    000a7825    %x..    DCD    686117
        0x000419b8:    20727370    psr     DCD    544371568
        0x000419bc:    7830203d    = 0x    DCD    2016419901
        0x000419c0:    000a7825    %x..    DCD    686117
    $t
    i.systick_counter
    systick_counter
        0x000419c4:    4802        .H      LDR      r0,[pc,#8] ; [0x419d0] = 0x20000038
        0x000419c6:    6801        .h      LDR      r1,[r0,#0]
        0x000419c8:    1c49        I.      ADDS     r1,r1,#1
        0x000419ca:    6001        .`      STR      r1,[r0,#0]
        0x000419cc:    4770        pG      BX       lr
    $d
        0x000419ce:    0000        ..      DCW    0
        0x000419d0:    20000038    8..     DCD    536870968
    $t
    i.tick_counter
    tick_counter
        0x000419d4:    4805        .H      LDR      r0,[pc,#20] ; [0x419ec] = 0x20000038
        0x000419d6:    6841        Ah      LDR      r1,[r0,#4]
        0x000419d8:    1c49        I.      ADDS     r1,r1,#1
        0x000419da:    6041        A`      STR      r1,[r0,#4]
        0x000419dc:    6841        Ah      LDR      r1,[r0,#4]
        0x000419de:    f64e2260    N.`"    MOV      r2,#0xea60
        0x000419e2:    4291        .B      CMP      r1,r2
        0x000419e4:    d301        ..      BCC      0x419ea ; tick_counter + 22
        0x000419e6:    2100        .!      MOVS     r1,#0
        0x000419e8:    6041        A`      STR      r1,[r0,#4]
        0x000419ea:    4770        pG      BX       lr
    $d
        0x000419ec:    20000038    8..     DCD    536870968
    $d.realdata
    .constdata
        0x000419f0:    00b71b00    ....    DCD    12000000
        0x000419f4:    00000000    ....    DCD    0
        0x000419f8:    00008000    ....    DCD    32768
        0x000419fc:    00b71b00    ....    DCD    12000000
        0x00041a00:    00b71b00    ....    DCD    12000000
        0x00041a04:    00000000    ....    DCD    0
        0x00041a08:    00008000    ....    DCD    32768
        0x00041a0c:    00b71b00    ....    DCD    12000000
        0x00041a10:    00b71b00    ....    DCD    12000000
        0x00041a14:    00000000    ....    DCD    0
        0x00041a18:    00008000    ....    DCD    32768
        0x00041a1c:    00b71b00    ....    DCD    12000000
    .constdata
        0x00041a20:    00b71b00    ....    DCD    12000000
        0x00041a24:    00008000    ....    DCD    32768
        0x00041a28:    00000000    ....    DCD    0
        0x00041a2c:    00000000    ....    DCD    0
        0x00041a30:    00000000    ....    DCD    0
        0x00041a34:    00002710    .'..    DCD    10000
        0x00041a38:    00000000    ....    DCD    0
        0x00041a3c:    00b71b00    ....    DCD    12000000
    .constdata
    __FUNCTION__
        0x00041a40:    706f6f6c    loop    DCD    1886351212
        0x00041a44:    00          .       DCB    0
    __FUNCTION__
        0x00041a45:    474554      GET     DCB    71,69,84
        0x00041a48:    4345565f    _VEC    DCD    1128617567
        0x00041a4c:    0050414d    MAP.    DCD    5259597
    Region$$Table$$Base
        0x00041a50:    00041a70    p...    DCD    268912
        0x00041a54:    20000000    ...     DCD    536870912
        0x00041a58:    0000004c    L...    DCD    76
        0x00041a5c:    000410d0    ....    DCD    266448
        0x00041a60:    00041abc    ....    DCD    268988
        0x00041a64:    2000004c    L..     DCD    536870988
        0x00041a68:    00000804    ....    DCD    2052
        0x00041a6c:    000410e0    ....    DCD    266464
    Region$$Table$$Limit

** Section #2 'SRAM' (SHT_PROGBITS) [SHF_ALLOC + SHF_WRITE]
    Size   : 76 bytes (alignment 4)
    Address: 0x20000000


** Section #3 'SRAM' (SHT_NOBITS) [SHF_ALLOC + SHF_WRITE]
    Size   : 2052 bytes (alignment 8)
    Address: 0x2000004c


** Section #4 '.debug_abbrev' (SHT_PROGBITS)
    Size   : 1476 bytes


** Section #5 '.debug_frame' (SHT_PROGBITS)
    Size   : 2848 bytes


** Section #6 '.debug_info' (SHT_PROGBITS)
    Size   : 32212 bytes


** Section #7 '.debug_line' (SHT_PROGBITS)
    Size   : 11376 bytes


** Section #8 '.debug_loc' (SHT_PROGBITS)
    Size   : 3556 bytes


** Section #9 '.debug_macinfo' (SHT_PROGBITS)
    Size   : 175288 bytes


** Section #10 '.debug_pubnames' (SHT_PROGBITS)
    Size   : 2214 bytes


** Section #11 '.symtab' (SHT_SYMTAB)
    Size   : 7776 bytes (alignment 4)
    String table #12 '.strtab'
    Last local symbol no. 251


** Section #12 '.strtab' (SHT_STRTAB)
    Size   : 6416 bytes


** Section #13 '.note' (SHT_NOTE)
    Size   : 28 bytes (alignment 4)


** Section #14 '.comment' (SHT_PROGBITS)
    Size   : 11004 bytes


** Section #15 '.shstrtab' (SHT_STRTAB)
    Size   : 156 bytes


